(lp0
(S'the rock is destined to be the 21st century\'s new " conan " and that he\'s going to make a splash even greater than arnold schwarzenegger , jean-claud van damme or steven segal . '
p1
S'pos'
p2
tp3
a(S'the gorgeously elaborate continuation of " the lord of the rings " trilogy is so huge that a column of words cannot adequately describe co-writer/director peter jackson\'s expanded vision of j . r . r . tolkien\'s middle-earth . '
p4
g2
tp5
a(S'effective but too-tepid biopic'
p6
g2
tp7
a(S'if you sometimes like to go to the movies to have fun , wasabi is a good place to start . '
p8
g2
tp9
a(S"emerges as something rare , an issue movie that's so honest and keenly observed that it doesn't feel like one . "
p10
g2
tp11
a(S'the film provides some great insight into the neurotic mindset of all comics -- even those who have reached the absolute top of the game . '
p12
g2
tp13
a(S'offers that rare combination of entertainment and education . '
p14
g2
tp15
a(S'perhaps no picture ever made has more literally showed that the road to hell is paved with good intentions . '
p16
g2
tp17
a(S"steers turns in a snappy screenplay that curls at the edges ; it's so clever you want to hate it . but he somehow pulls it off . "
p18
g2
tp19
a(S'take care of my cat offers a refreshingly different slice of asian cinema . '
p20
g2
tp21
a(S'this is a film well worth seeing , talking and singing heads and all . '
p22
g2
tp23
a(S'what really surprises about wisegirls is its low-key quality and genuine tenderness . '
p24
g2
tp25
a(S' ( wendigo is ) why we go to the cinema : to be fed through the eye , the heart , the mind . '
p26
g2
tp27
a(S'one of the greatest family-oriented , fantasy-adventure movies ever . '
p28
g2
tp29
a(S'ultimately , it ponders the reasons we need stories so much . '
p30
g2
tp31
a(S"an utterly compelling 'who wrote it' in which the reputation of the most famous author who ever lived comes into question . "
p32
g2
tp33
a(S'illuminating if overly talky documentary . '
p34
g2
tp35
a(S'a masterpiece four years in the making . '
p36
g2
tp37
a(S"the movie's ripe , enrapturing beauty will tempt those willing to probe its inscrutable mysteries . "
p38
g2
tp39
a(S'offers a breath of the fresh air of true sophistication . '
p40
g2
tp41
a(S'a thoughtful , provocative , insistently humanizing film . '
p42
g2
tp43
a(S'with a cast that includes some of the top actors working in independent film , lovely & amazing involves us because it is so incisive , so bleakly amusing about how we go about our lives . '
p44
g2
tp45
a(S'a disturbing and frighteningly evocative assembly of imagery and hypnotic music composed by philip glass . '
p46
g2
tp47
a(S"not for everyone , but for those with whom it will connect , it's a nice departure from standard moviegoing fare . "
p48
g2
tp49
a(S'scores a few points for doing what it does with a dedicated and good-hearted professionalism . '
p50
g2
tp51
a(S"occasionally melodramatic , it's also extremely effective . "
p52
g2
tp53
a(S'spiderman rocks'
p54
g2
tp55
a(S'an idealistic love story that brings out the latent 15-year-old romantic in everyone . '
p56
g2
tp57
a(S"at about 95 minutes , treasure planet maintains a brisk pace as it races through the familiar story . however , it lacks grandeur and that epic quality often associated with stevenson's tale as well as with earlier disney efforts . "
p58
g2
tp59
a(S'it helps that lil bow wow . . . tones down his pint-sized gangsta act to play someone who resembles a real kid . '
p60
g2
tp61
a(S'guaranteed to move anyone who ever shook , rattled , or rolled . '
p62
g2
tp63
a(S'a masterful film from a master filmmaker , unique in its deceptive grimness , compelling in its fatalist worldview . '
p64
g2
tp65
a(S'light , cute and forgettable . '
p66
g2
tp67
a(S"if there's a way to effectively teach kids about the dangers of drugs , i think it's in projects like the ( unfortunately r-rated ) paid . "
p68
g2
tp69
a(S"while it would be easy to give crush the new title of two weddings and a funeral , it's a far more thoughtful film than any slice of hugh grant whimsy . "
p70
g2
tp71
a(S'though everything might be literate and smart , it never took off and always seemed static . '
p72
g2
tp73
a(S"cantet perfectly captures the hotel lobbies , two-lane highways , and roadside cafes that permeate vincent's days"
p74
g2
tp75
a(S'ms . fulford-wierzbicki is almost spooky in her sulky , calculating lolita turn . '
p76
g2
tp77
a(S'though it is by no means his best work , laissez-passer is a distinguished and distinctive effort by a bona-fide master , a fascinating film replete with rewards to be had by all willing to make the effort to reap them . '
p78
g2
tp79
a(S'like most bond outings in recent years , some of the stunts are so outlandish that they border on being cartoonlike . a heavy reliance on cgi technology is beginning to creep into the series . '
p80
g2
tp81
a(S'newton draws our attention like a magnet , and acts circles around her better known co-star , mark wahlberg . '
p82
g2
tp83
a(S"the story loses its bite in a last-minute happy ending that's even less plausible than the rest of the picture . much of the way , though , this is a refreshingly novel ride . "
p84
g2
tp85
a(S'fuller would surely have called this gutsy and at times exhilarating movie a great yarn . '
p86
g2
tp87
a(S"'compleja e intelectualmente retadora , el ladr\xf3n de orqu\xeddeas es uno de esos filmes que vale la pena ver precisamente por su originalidad . '"
p88
g2
tp89
a(S'the film makes a strong case for the importance of the musicians in creating the motown sound . '
p90
g2
tp91
a(S'karmen moves like rhythm itself , her lips chanting to the beat , her long , braided hair doing little to wipe away the jeweled beads of sweat . '
p92
g2
tp93
a(S'gosling provides an amazing performance that dwarfs everything else in the film . '
p94
g2
tp95
a(S"a real movie , about real people , that gives us a rare glimpse into a culture most of us don't know . "
p96
g2
tp97
a(S'tender yet lacerating and darkly funny fable . '
p98
g2
tp99
a(S"may be spoofing an easy target -- those old '50's giant creature features -- but . . . it acknowledges and celebrates their cheesiness as the reason why people get a kick out of watching them today . "
p100
g2
tp101
a(S"an engaging overview of johnson's eccentric career . "
p102
g2
tp103
a(S'in its ragged , cheap and unassuming way , the movie works . '
p104
g2
tp105
a(S"some actors have so much charisma that you'd be happy to listen to them reading the phone book . hugh grant and sandra bullock are two such likeable actors . "
p106
g2
tp107
a(S'sandra nettelbeck beautifully orchestrates the transformation of the chilly , neurotic , and self-absorbed martha as her heart begins to open . '
p108
g2
tp109
a(S'behind the snow games and lovable siberian huskies ( plus one sheep dog ) , the picture hosts a parka-wrapped dose of heart . '
p110
g2
tp111
a(S'everytime you think undercover brother has run out of steam , it finds a new way to surprise and amuse . '
p112
g2
tp113
a(S'manages to be original , even though it rips off many of its ideas . '
p114
g2
tp115
a(S'singer/composer bryan adams contributes a slew of songs \x97 a few potential hits , a few more simply intrusive to the story \x97 but the whole package certainly captures the intended , er , spirit of the piece . '
p116
g2
tp117
a(S"you'd think by now america would have had enough of plucky british eccentrics with hearts of gold . yet the act is still charming here . "
p118
g2
tp119
a(S'whether or not you\'re enlightened by any of derrida\'s lectures on " the other " and " the self , " derrida is an undeniably fascinating and playful fellow . '
p120
g2
tp121
a(S'a pleasant enough movie , held together by skilled ensemble actors . '
p122
g2
tp123
a(S"this is the best american movie about troubled teens since 1998's whatever . "
p124
g2
tp125
a(S"disney has always been hit-or-miss when bringing beloved kids' books to the screen . . . tuck everlasting is a little of both . "
p126
g2
tp127
a(S'just the labour involved in creating the layered richness of the imagery in this chiaroscuro of madness and light is astonishing . '
p128
g2
tp129
a(S'the animated subplot keenly depicts the inner struggles of our adolescent heroes - insecure , uncontrolled , and intense . '
p130
g2
tp131
a(S'the invincible werner herzog is alive and well and living in la'
p132
g2
tp133
a(S'morton is a great actress portraying a complex character , but morvern callar grows less compelling the farther it meanders from its shocking start . '
p134
g2
tp135
a(S'part of the charm of satin rouge is that it avoids the obvious with humour and lightness . '
p136
g2
tp137
a(S'son of the bride may be a good half-hour too long but comes replete with a flattering sense of mystery and quietness . '
p138
g2
tp139
a(S'a simmering psychological drama in which the bursts of sudden violence are all the more startling for the slow buildup that has preceded them . '
p140
g2
tp141
a(S'a taut , intelligent psychological drama . '
p142
g2
tp143
a(S"a compelling coming-of-age drama about the arduous journey of a sensitive young girl through a series of foster homes and a fierce struggle to pull free from her dangerous and domineering mother's hold over her . "
p144
g2
tp145
a(S'a truly moving experience , and a perfect example of how art -- when done right -- can help heal , clarify , and comfort . '
p146
g2
tp147
a(S'this delicately observed story , deeply felt and masterfully stylized , is a triumph for its maverick director . '
p148
g2
tp149
a(S'at heart the movie is a deftly wrought suspense yarn whose richer shadings work as coloring rather than substance . '
p150
g2
tp151
a(S"the appearance of treebeard and gollum's expanded role will either have you loving what you're seeing , or rolling your eyes . i loved it ! gollum's 'performance' is incredible ! "
p152
g2
tp153
a(S'a screenplay more ingeniously constructed than " memento " '
p154
g2
tp155
a(S"if this movie were a book , it would be a page-turner , you can't wait to see what happens next . "
p156
g2
tp157
a(S'haneke challenges us to confront the reality of sexual aberration . '
p158
g2
tp159
a(S'absorbing and disturbing -- perhaps more disturbing than originally intended -- but a little clarity would have gone a long way . '
p160
g2
tp161
a(S"it's the best film of the year so far , the benchmark against which all other best picture contenders should be measured . "
p162
g2
tp163
a(S"painful to watch , but viewers willing to take a chance will be rewarded with two of the year's most accomplished and riveting film performances . "
p164
g2
tp165
a(S'this is a startling film that gives you a fascinating , albeit depressing view of iranian rural life close to the iraqi border . '
p166
g2
tp167
a(S'an imaginative comedy/thriller . '
p168
g2
tp169
a(S'a few artsy flourishes aside , narc is as gritty as a movie gets these days . '
p170
g2
tp171
a(S'while the isle is both preposterous and thoroughly misogynistic , its vistas are incredibly beautiful to look at . '
p172
g2
tp173
a(S"together , tok and o orchestrate a buoyant , darkly funny dance of death . in the process , they demonstrate that there's still a lot of life in hong kong cinema . "
p174
g2
tp175
a(S'director kapur is a filmmaker with a real flair for epic landscapes and adventure , and this is a better film than his earlier english-language movie , the overpraised elizabeth . '
p176
g2
tp177
a(S'the movie is a blast of educational energy , as bouncy animation and catchy songs escort you through the entire 85 minutes . '
p178
g2
tp179
a(S"a sports movie with action that's exciting on the field and a story you care about off it . "
p180
g2
tp181
a(S"doug liman , the director of bourne , directs the traffic well , gets a nice wintry look from his locations , absorbs us with the movie's spycraft and uses damon's ability to be focused and sincere . "
p182
g2
tp183
a(S'the tenderness of the piece is still intact . '
p184
g2
tp185
a(S'katz uses archival footage , horrifying documents of lynchings , still photographs and charming old reel-to-reel recordings of meeropol entertaining his children to create his song history , but most powerful of all is the song itself'
p186
g2
tp187
a(S"like the film's almost anthropologically detailed realization of early-'80s suburbia , it's significant without being overstated . "
p188
g2
tp189
a(S"while mcfarlane's animation lifts the film firmly above the level of other coming-of-age films . . . it's also so jarring that it's hard to get back into the boys' story . "
p190
g2
tp191
a(S'if nothing else , this movie introduces a promising , unusual kind of psychological horror . '
p192
g2
tp193
a(S'in a normal screen process , these bromides would be barely enough to sustain an interstitial program on the discovery channel . but in imax 3-d , the clich\xe9s disappear into the vertiginous perspectives opened up by the photography . '
p194
g2
tp195
a(S'writer-director burger imaginatively fans the embers of a dormant national grief and curiosity that has calcified into chronic cynicism and fear . '
p196
g2
tp197
a(S' . . . a roller-coaster ride of a movie'
p198
g2
tp199
a(S'i enjoyed time of favor while i was watching it , but i was surprised at how quickly it faded from my memory . '
p200
g2
tp201
a(S'chicago is sophisticated , brash , sardonic , completely joyful in its execution . '
p202
g2
tp203
a(S"steve irwin's method is ernest hemmingway at accelerated speed and volume . "
p204
g2
tp205
a(S'a refreshing korean film about five female high school friends who face an uphill battle when they try to take their relationships into deeper waters . '
p206
g2
tp207
a(S"on the surface , it's a lovers-on-the-run crime flick , but it has a lot in common with piesiewicz's and kieslowski's earlier work , films like the double life of veronique . "
p208
g2
tp209
a(S'the values that have held the enterprise crew together through previous adventures and perils do so again-courage , self-sacrifice and patience under pressure . '
p210
g2
tp211
a(S"if it's possible for a sequel to outshine the original , then sl2 does just that . "
p212
g2
tp213
a(S'a romantic comedy that operates by the rules of its own self-contained universe . '
p214
g2
tp215
a(S"4 friends , 2 couples , 2000 miles , and all the pabst blue ribbon beer they can drink - it's the ultimate redneck road-trip . "
p216
g2
tp217
a(S"the film is often filled with a sense of pure wonderment and excitement not often seen in today's cinema du sarcasm"
p218
g2
tp219
a(S"it might be tempting to regard mr . andrew and his collaborators as oddballs , but mr . earnhart's quizzical , charming movie allows us to see them , finally , as artists . "
p220
g2
tp221
a(S'a feel-good picture in the best sense of the term . '
p222
g2
tp223
a(S'edited and shot with a syncopated style mimicking the work of his subjects , pray turns the idea of the documentary on its head , making it rousing , invigorating fun lacking any mtv puffery . '
p224
g2
tp225
a(S'a mostly intelligent , engrossing and psychologically resonant suspenser . '
p226
g2
tp227
a(S"it's this memory-as-identity obviation that gives secret life its intermittent unease , reaffirming that long-held illusions are indeed reality , and that erasing them recasts the self . "
p228
g2
tp229
a(S"hip-hop has a history , and it's a metaphor for this love story . "
p230
g2
tp231
a(S"in scope , ambition and accomplishment , children of the century . . . takes kurys' career to a whole new level . "
p232
g2
tp233
a(S"this may not have the dramatic gut-wrenching impact of other holocaust films , but it's a compelling story , mainly because of the way it's told by the people who were there . "
p234
g2
tp235
a(S'between the drama of cube ? s personal revelations regarding what the shop means in the big picture , iconic characters gambol fluidly through the story , with charming results . '
p236
g2
tp237
a(S'a gentle , compassionate drama about grief and healing . '
p238
g2
tp239
a(S'somewhere short of tremors on the modern b-scene : neither as funny nor as clever , though an agreeably unpretentious way to spend ninety minutes . '
p240
g2
tp241
a(S'digital-video documentary about stand-up comedians is a great glimpse into a very different world . '
p242
g2
tp243
a(S'unlike most teen flicks , swimming takes its time to tell its story , casts mostly little-known performers in key roles , and introduces some intriguing ambiguity . '
p244
g2
tp245
a(S"an enthralling , playful film that constantly frustrates our desire to know the 'truth' about this man , while deconstructing the very format of the biography in a manner that derrida would doubtless give his blessing to . "
p246
g2
tp247
a(S' " extreme ops " exceeds expectations . good fun , good action , good acting , good dialogue , good pace , good cinematography . '
p248
g2
tp249
a(S'you should pay nine bucks for this : because you can hear about suffering afghan refugees on the news and still be unaffected . dramas like this make it human . '
p250
g2
tp251
a(S'a thunderous ride at first , quiet cadences of pure finesse are few and far between ; their shortage dilutes the potency of otherwise respectable action . still , this flick is fun , and host to some truly excellent sequences . '
p252
g2
tp253
a(S"it's obviously struck a responsive chord with many south koreans , and should work its magic in other parts of the world . "
p254
g2
tp255
a(S"run , don't walk , to see this barbed and bracing comedy on the big screen . "
p256
g2
tp257
a(S'a classy item by a legend who may have nothing left to prove but still has the chops and drive to show how its done . '
p258
g2
tp259
a(S"it is nature against progress . in fessenden's horror trilogy , this theme has proved important to him and is especially so in the finale . "
p260
g2
tp261
a(S"it's not exactly a gourmet meal but the fare is fair , even coming from the drive-thru . "
p262
g2
tp263
a(S'this is what imax was made for : strap on a pair of 3-d goggles , shut out the real world , and take a vicarious voyage to the last frontier -- space . '
p264
g2
tp265
a(S'merely as a technical , logistical feat , russian ark marks a cinematic milestone . '
p266
g2
tp267
a(S'[schweiger is] talented and terribly charismatic , qualities essential to both movie stars and social anarchists . '
p268
g2
tp269
a(S"it's a great deal of sizzle and very little steak . but what spectacular sizzle it is ! . . . in this incarnation its fizz is infectious . "
p270
g2
tp271
a(S'an original gem about an obsession with time . '
p272
g2
tp273
a(S'it will delight newcomers to the story and those who know it from bygone days . '
p274
g2
tp275
a(S'gloriously goofy ( and gory ) midnight movie stuff . '
p276
g2
tp277
a(S'the film overcomes the regular minefield of coming-of-age cliches with potent doses of honesty and sensitivity . '
p278
g2
tp279
a(S"if your senses haven't been dulled by slasher films and gorefests , if you're a connoisseur of psychological horror , this is your ticket . "
p280
g2
tp281
a(S"it's a minor comedy that tries to balance sweetness with coarseness , while it paints a sad picture of the singles scene . "
p282
g2
tp283
a(S'it is intensely personal and yet -- unlike quills -- deftly shows us the temper of the times . '
p284
g2
tp285
a(S'as lo-fi as the special effects are , the folks who cobbled nemesis together indulge the force of humanity over hardware in a way that george lucas has long forgotten . '
p286
g2
tp287
a(S"like mike doesn't win any points for originality . it does succeed by following a feel-good formula with a winning style , and by offering its target audience of urban kids some welcome role models and optimism . "
p288
g2
tp289
a(S"it's a hoot and a half , and a great way for the american people to see what a candidate is like when he's not giving the same 15-cent stump speech . "
p290
g2
tp291
a(S'far from perfect , but its heart is in the right place . . . innocent and well-meaning . '
p292
g2
tp293
a(S'a sad , superior human comedy played out on the back roads of life . '
p294
g2
tp295
a(S'waydowntown is by no means a perfect film , but its boasts a huge charm factor and smacks of originality . '
p296
g2
tp297
a(S'tim allen is great in his role but never hogs the scenes from his fellow cast , as there are plenty of laughs and good lines for everyone in this comedy . '
p298
g2
tp299
a(S'more a load of enjoyable , conan-esque claptrap than the punishing , special-effects soul assaults the mummy pictures represent . '
p300
g2
tp301
a(S'enormously likable , partly because it is aware of its own grasp of the absurd . '
p302
g2
tp303
a(S"here's a british flick gleefully unconcerned with plausibility , yet just as determined to entertain you . "
p304
g2
tp305
a(S"it's an old story , but a lively script , sharp acting and partially animated interludes make just a kiss seem minty fresh . "
p306
g2
tp307
a(S'must be seen to be believed . '
p308
g2
tp309
a(S"ray liotta and jason patric do some of their best work in their underwritten roles , but don't be fooled : nobody deserves any prizes here . "
p310
g2
tp311
a(S"everything that has to do with yvan and charlotte , and everything that has to do with yvan's rambunctious , jewish sister and her non-jew husband , feels funny and true . "
p312
g2
tp313
a(S'sweet home alabama " is what it is \x96 a nice , harmless date film . . . '
p314
g2
tp315
a(S"the year's happiest surprise , a movie that deals with a real subject in an always surprising way . "
p316
g2
tp317
a(S"fans of behan's work and of irish movies in general will be rewarded by borstal boy . "
p318
g2
tp319
a(S"its mysteries are transparently obvious , and it's too slowly paced to be a thriller . [but it's] worth recommending because of two marvelous performances by michael caine and brendan fraser . "
p320
g2
tp321
a(S"the film is faithful to what one presumes are the book's twin premises -- that we become who we are on the backs of our parents , but we have no idea who they were at our age ; and that time is a fleeting and precious commodity no matter how old you are . "
p322
g2
tp323
a(S"stephen earnhart's homespun documentary mule skinner blues has nothing but love for its posse of trailer park denizens . "
p324
g2
tp325
a(S'a solidly seaworthy chiller . '
p326
g2
tp327
a(S'if you can get past the fantastical aspects and harsh realities of " the isle " you\'ll get a sock-you-in-the-eye flick that is a visual tour-de-force and a story that is unlike any you will likely see anywhere else . '
p328
g2
tp329
a(S"there are as many misses as hits , but ultimately , it finds humor in the foibles of human behavior , and it's a welcome return to the roots of a genre that should depend on surprises . "
p330
g2
tp331
a(S'a well-made thriller with a certain level of intelligence and non-reactionary morality . '
p332
g2
tp333
a(S"there's enough science to make it count as educational , and enough beauty to make it unforgettable . "
p334
g2
tp335
a(S'remains a solid , if somewhat heavy-handed , account of the near-disaster . . . done up by howard with a steady , if not very imaginative , hand . '
p336
g2
tp337
a(S"makmalbaf follows a resolutely realistic path in this uncompromising insight into the harsh existence of the kurdish refugees of iran's borderlands . "
p338
g2
tp339
a(S'for a good chunk of its running time , trapped is an effective and claustrophobic thriller . '
p340
g2
tp341
a(S'most of crush is a clever and captivating romantic comedy with a welcome pinch of tartness . '
p342
g2
tp343
a(S'nair does capture the complexity of a big family and its trials and tribulations . . . '
p344
g2
tp345
a(S'the seaside splendor and shallow , beautiful people are nice to look at while you wait for the story to get going . '
p346
g2
tp347
a(S"rare is the 'urban comedy' that even attempts the insight and honesty of this disarming indie . "
p348
g2
tp349
a(S"ranks among willams' best screen work . "
p350
g2
tp351
a(S'engagingly captures the maddening and magnetic ebb and flow of friendship . '
p352
g2
tp353
a(S'an experience so engrossing it is like being buried in a new environment . '
p354
g2
tp355
a(S"it's traditional moviemaking all the way , but it's done with a lot of careful period attention as well as some very welcome wit . "
p356
g2
tp357
a(S'thoroughly enjoyable . '
p358
g2
tp359
a(S"maybe it's just because this past year has seen the release of some of the worst film comedies in decades . . . but honestly , analyze that really isn't all that bad . "
p360
g2
tp361
a(S'a droll , well-acted , character-driven comedy with unexpected deposits of feeling . '
p362
g2
tp363
a(S"this is simply the most fun you'll ever have with a documentary ! "
p364
g2
tp365
a(S'a very funny movie . '
p366
g2
tp367
a(S"watching haneke's film is , aptly enough , a challenge and a punishment . but watching huppert , a great actress tearing into a landmark role , is riveting . "
p368
g2
tp369
a(S'a cop story that understands the medium amazingly well . '
p370
g2
tp371
a(S"one of the best , most understated performances of [jack nicholson's] career . "
p372
g2
tp373
a(S'britney has been delivered to the big screen safe and sound , the way we like our 20-year-old superstar girls to travel on the fame freeway . '
p374
g2
tp375
a(S"those outside show business will enjoy a close look at people they don't really want to know . "
p376
g2
tp377
a(S'the kind of nervous film that will either give you a mild headache or exhilarate you . '
p378
g2
tp379
a(S'watching beanie and his gang put together his slasher video from spare parts and borrowed materials is as much fun as it must have been for them to make it . '
p380
g2
tp381
a(S"children may not understand everything that happens -- i'm not sure even miyazaki himself does -- but they will almost certainly be fascinated , and undoubtedly delighted . "
p382
g2
tp383
a(S'a fascinating and fun film . '
p384
g2
tp385
a(S'tadpole is a sophisticated , funny and good-natured treat , slight but a pleasure . '
p386
g2
tp387
a(S'this insightful , oscar-nominated documentary , in which children on both sides of the ever-escalating conflict have their say away from watchful parental eyes , gives peace yet another chance . '
p388
g2
tp389
a(S'i admired this work a lot . '
p390
g2
tp391
a(S"whether you're moved and love it , or bored or frustrated by the film , you'll still feel something . "
p392
g2
tp393
a(S' . . . there are enough moments of heartbreaking honesty to keep one glued to the screen . '
p394
g2
tp395
a(S'my goodness , queen latifah has a lot to offer and she seemed to have no problem flaunting her natural gifts . she must have a very strong back . '
p396
g2
tp397
a(S'a smart , sweet and playful romantic comedy . '
p398
g2
tp399
a(S'australian actor/director john polson and award-winning english cinematographer giles nuttgens make a terrific effort at disguising the obvious with energy and innovation . '
p400
g2
tp401
a(S'without heavy-handedness , dong provides perspective with his intelligent grasp of human foibles and contradictions . '
p402
g2
tp403
a(S'solid , lump-in-the-throat family entertainment that derives its power by sticking to the facts . '
p404
g2
tp405
a(S'as an entertainment , the movie keeps you diverted and best of all , it lightens your wallet without leaving a sting . '
p406
g2
tp407
a(S'it is interesting and fun to see goodall and her chimpanzees on the bigger-than-life screen . '
p408
g2
tp409
a(S"it won't bust your gut -- and it's not intended to -- it's merely a blandly cinematic surgical examination of what makes a joke a joke . "
p410
g2
tp411
a(S'a somewhat crudely constructed but gripping , questing look at a person so racked with self-loathing , he becomes an enemy to his own race . '
p412
g2
tp413
a(S'it extends the writings of jean genet and john rechy , the films of fassbinder , perhaps even the nocturnal works of goya . '
p414
g2
tp415
a(S"narc may not get an 'a' for originality , but it wears its b-movie heritage like a badge of honor . "
p416
g2
tp417
a(S"with the film's striking ending , one realizes that we have a long way to go before we fully understand all the sexual permutations involved . "
p418
g2
tp419
a(S"[drumline] is entertaining for what it does , and admirable for what it doesn't do . "
p420
g2
tp421
a(S'at its best early on as it plays the culture clashes between the brothers . '
p422
g2
tp423
a(S'[a] rare , beautiful film . '
p424
g2
tp425
a(S'an unabashedly schmaltzy and thoroughly enjoyable true story . '
p426
g2
tp427
a(S'a thoughtful look at a painful incident that made headlines in 1995 . '
p428
g2
tp429
a(S'you walk out of the good girl with mixed emotions \x97 disapproval of justine combined with a tinge of understanding for her actions . '
p430
g2
tp431
a(S'tsai ming-liang has taken his trademark style and refined it to a crystalline point . '
p432
g2
tp433
a(S'purely propaganda , a work of unabashed hero worship , it is nonetheless -- and likely inadvertently -- a timely and invaluable implicit reminder of the role that u . s . foreign policy has played in the rise of castro . '
p434
g2
tp435
a(S'now trimmed by about 20 minutes , this lavish three-year-old production has enough grandeur and scale to satisfy as grown-up escapism . '
p436
g2
tp437
a(S"we get some truly unique character studies and a cross-section of americana that hollywood couldn't possibly fictionalize and be believed . "
p438
g2
tp439
a(S'though this film can be clumsy , its ambitions are equally -- and admirably -- uncommercial . '
p440
g2
tp441
a(S'daring , mesmerizing and exceedingly hard to forget . '
p442
g2
tp443
a(S"the dangerous lives of altar boys' take on adolescence feels painfully true . "
p444
g2
tp445
a(S"moore's performance impresses almost as much as her work with haynes in 1995's safe . "
p446
g2
tp447
a(S"visits spy-movie territory like a novel you can't put down , examines a footnote to history seldom brought to light on the screen , and keeps you guessing from first frame to last . "
p448
g2
tp449
a(S'an absorbing , slice-of-depression life that touches nerves and rings true . '
p450
g2
tp451
a(S'mr . parker has brilliantly updated his source and grasped its essence , composing a sorrowful and hilarious tone poem about alienated labor , or an absurdist workplace sitcom . '
p452
g2
tp453
a(S'the result is something quite fresh and delightful . '
p454
g2
tp455
a(S'all but the most persnickety preteens should enjoy this nonthreatening but thrilling adventure . '
p456
g2
tp457
a(S"despite its many infuriating flaws -- not the least of which is amy's self-absorbed personality -- amy's o's honesty will win you over . "
p458
g2
tp459
a(S"this is one of polanski's best films . "
p460
g2
tp461
a(S'day is not a great bond movie , but it is a good bond movie , which still makes it much better than your typical bond knock-offs . '
p462
g2
tp463
a(S'polished korean political-action film is just as good -- and bad -- as hollywood action epics . is this progress ? '
p464
g2
tp465
a(S'elling , portrayed with quiet fastidiousness by per christian ellefsen , is a truly singular character , one whose frailties are only slightly magnified versions of the ones that vex nearly everyone . '
p466
g2
tp467
a(S"denis and co-writer michele petin's impeccable screenplay penetrates with a rawness that that is both unflinching and tantalizing . lead provocatuers testud and parmentier give superlative performances"
p468
g2
tp469
a(S'an absorbing trip into the minds and motivations of people under stress as well as a keen , unsentimental look at variations on the theme of motherhood . '
p470
g2
tp471
a(S'i admired it , particularly that unexpected downer of an ending . '
p472
g2
tp473
a(S'the passions aroused by the discord between old and new cultures are set against the strange , stark beauty of the mideast desert , so lovingly and perceptively filmed that you can almost taste the desiccated air . '
p474
g2
tp475
a(S'remarkably accessible and affecting . '
p476
g2
tp477
a(S'never mind whether you buy the stuff about barris being a cia hit man . the kooky yet shadowy vision clooney sustains throughout is daring , inventive and impressive . '
p478
g2
tp479
a(S'a triumph of art direction over narrative , but what art direction ! '
p480
g2
tp481
a(S"behan himself knew how to spin a tale and one can't help but think he'd appreciate this attempt to turn his life into art . "
p482
g2
tp483
a(S"jir\xed hubac's script is a gem . his characters are engaging , intimate and the dialogue is realistic and greatly moving . the scope of the silberstein family is large and we grow attached to their lives , full of strength , warmth and vitality . . "
p484
g2
tp485
a(S"moore's complex and important film is also , believe it or not , immensely entertaining , a david and goliath story that's still very much playing itself out . "
p486
g2
tp487
a(S"the additional storyline is interesting and entertaining , but it doesn't have the same magical quality as the beginning of the story . i like the new footage and still love the old stuff . "
p488
g2
tp489
a(S'though mama takes a bit too long to find its rhythm and a third-act plot development is somewhat melodramatic , its ribald humor and touching nostalgia are sure to please anyone in search of a jules and jim for the new millennium . '
p490
g2
tp491
a(S"you might not buy the ideas . but you'll definitely want the t-shirt . "
p492
g2
tp493
a(S'provides an intriguing window into the imagination and hermetic analysis of todd solondz . '
p494
g2
tp495
a(S'windtalkers is shapelessly gratifying , the kind of movie that invites you to pick apart its faults even as you have to admit that somehow it hit you where you live . '
p496
g2
tp497
a(S'presents an astute appraisal of middle american musical torpor and the desperate struggle to escape it . '
p498
g2
tp499
a(S'just what makes us happy , anyway ? '
p500
g2
tp501
a(S'a thoughtful , moving piece that faces difficult issues with honesty and beauty . '
p502
g2
tp503
a(S'one of the greatest romantic comedies of the past decade . '
p504
g2
tp505
a(S"you wouldn't call the good girl a date movie ( an anti-date movie is more like it ) , but when it's good , it's good and horrid . "
p506
g2
tp507
a(S"benefits from a strong performance from zhao , but it's dong jie's face you remember at the end . "
p508
g2
tp509
a(S'this is a film brimming with detail and nuance and one that speaks volumes about the ability of the human spirit to find solace in events that could easily crush it forever . '
p510
g2
tp511
a(S'the director , steven shainberg , has succeeded by focusing intently on his characters , making them quirky individuals rather than figures of fun . '
p512
g2
tp513
a(S"it ultimately stands forth as an important chronicle of the abuses of one of latin america's most oppressive regimes . "
p514
g2
tp515
a(S'the movie has a soft , percolating magic , a deadpan suspense . '
p516
g2
tp517
a(S'a well-made and often lovely depiction of the mysteries of friendship . '
p518
g2
tp519
a(S'using his audience as a figurative port-of-call , dong pulls his even-handed ideological ship to their dock for unloading , before he continues his longer journey still ahead . '
p520
g2
tp521
a(S' . . . understands that a generation defines its music as much as the music defines a generation . '
p522
g2
tp523
a(S'the transporter is as lively and as fun as it is unapologetically dumb'
p524
g2
tp525
a(S"as a witness to several greek-american weddings -- but , happily , a victim of none -- i can testify to the comparative accuracy of ms . vardalos' memories and insights . "
p526
g2
tp527
a(S'has it ever been possible to say that williams has truly inhabited a character ? it is now . '
p528
g2
tp529
a(S"by presenting an impossible romance in an impossible world , pumpkin dares us to say why either is impossible -- which forces us to confront what's possible and what we might do to make it so . "
p530
g2
tp531
a(S'an impressive debut for first-time writer-director mark romanek , especially considering his background is in music video . '
p532
g2
tp533
a(S'an incendiary , deeply thought-provoking look at one of the most peculiar ( and peculiarly venomous ) bigotries in our increasingly frightening theocracy'
p534
g2
tp535
a(S'all the performances are top notch and , once you get through the accents , all or nothing becomes an emotional , though still positive , wrench of a sit . '
p536
g2
tp537
a(S' " its successes are also tempered with elements which prove the direct antithesis of what it gets right . " '
p538
g2
tp539
a(S"it's solid and affecting and exactly as thought-provoking as it should be . "
p540
g2
tp541
a(S"this is such a dazzlingly self-assured directorial debut that it's hard to know what to praise first . "
p542
g2
tp543
a(S"parker holds true to wilde's own vision of a pure comedy with absolutely no meaning , and no desire to be anything but a polished , sophisticated entertainment that is in love with its own cleverness . "
p544
g2
tp545
a(S"m\xfcnch's genuine insight makes the film's occasional overindulgence forgivable . "
p546
g2
tp547
a(S'thankfully , the film , which skirts that rapidly deteriorating line between fantasy and reality . . . takes a tongue-in-cheek attitude even as it pushes the croc hunter agenda . '
p548
g2
tp549
a(S"ultimately , the message of trouble every day seems to be that all sexual desire disrupts life's stasis . "
p550
g2
tp551
a(S"if you're like me , a sucker for a good old fashion romance and someone who shamelessly loves to eat , then mostly martha offers all the perfect ingredients to more than satisfy your appetite . "
p552
g2
tp553
a(S'the film has just enough of everything -- re-enactments , archival footage , talking-head interviews -- and the music is simply sublime . '
p554
g2
tp555
a(S'there are a few stabs at absurdist comedy . . . but mostly the humor is of the sweet , gentle and occasionally cloying kind that has become an iranian specialty . '
p556
g2
tp557
a(S'a wonderful character-based comedy . '
p558
g2
tp559
a(S'it would be interesting to hear from the other side , but in talk to her , the women are down for the count . '
p560
g2
tp561
a(S'an endearingly offbeat romantic comedy with a great meet-cute gimmick . '
p562
g2
tp563
a(S'the unique tug-of-war with viewer expectations is undeniable , if not a pleasure in its own right . '
p564
g2
tp565
a(S"it uses an old-time formula , it's not terribly original and it's rather messy -- but you just have to love the big , dumb , happy movie my big fat greek wedding . "
p566
g2
tp567
a(S"it's almost impossible not to be moved by the movie's depiction of sacrifice and its stirring epilogue in post-soviet russia . "
p568
g2
tp569
a(S"who knows what exactly godard is on about in this film , but his words and images don't have to add up to mesmerize you . "
p570
g2
tp571
a(S'the tone is balanced , reflective and reasonable . '
p572
g2
tp573
a(S'the principals in this cast are all fine , but bishop and stevenson are standouts . '
p574
g2
tp575
a(S'it could change america , not only because it is full of necessary discussion points , but because it is so accessible that it makes complex politics understandable to viewers looking for nothing but energetic entertainment . '
p576
g2
tp577
a(S"what's most striking about this largely celebratory film . . . is the sense of isolation that permeates these bastions of individuality in an ikea world . "
p578
g2
tp579
a(S" . . . if you're in a mind set for goofy comedy , the troopers will entertain with their gross outs , bawdy comedy and head games . "
p580
g2
tp581
a(S"somewhat blurred , but kinnear's performance is razor sharp . "
p582
g2
tp583
a(S'as a director , mr . ratliff wisely rejects the temptation to make fun of his subjects . '
p584
g2
tp585
a(S"for anyone who remembers the '60s or is interested in one man's response to stroke , ram dass : fierce grace is worth seeking out . "
p586
g2
tp587
a(S'intriguing and beautiful film , but those of you who read the book are likely to be disappointed . '
p588
g2
tp589
a(S'the new guy does have a heart . now , if it only had a brain . '
p590
g2
tp591
a(S"a savvy exploration of paranoia and insecurity in america's culture of fear . "
p592
g2
tp593
a(S"legendary irish writer brendan behan's memoir , borstal boy , has been given a loving screen transferral . "
p594
g2
tp595
a(S"the film's greatest asset is how much it's not just another connect-the-dots , spy-on-the-run picture . "
p596
g2
tp597
a(S'this clever caper movie has twists worthy of david mamet and is enormous fun for thinking audiences . '
p598
g2
tp599
a(S"it's one of the saddest films i have ever seen that still manages to be uplifting but not overly sentimental . "
p600
g2
tp601
a(S'morton is , as usual , brilliant . '
p602
g2
tp603
a(S'even with all those rough edges safely sanded down , the american insomnia is still pretty darned good . '
p604
g2
tp605
a(S"i don't know precisely what to make of steven soderbergh's full frontal , though that didn't stop me from enjoying much of it . "
p606
g2
tp607
a(S'the tug of war that ensues is as much a snapshot of modern china in microcosm as it is a crash course in movie mythology . '
p608
g2
tp609
a(S"nearly surreal , dabbling in french , this is no simple movie , and you'll be taking a risk if you choose to see it . i enjoyed the ride ( bumps and all ) , creamy depth , and ultimate theme . "
p610
g2
tp611
a(S"you could say that it's slow at times , you could say that a few of the characters act in ways that real people wouldn't , but one thing you couldn't say is that alias betty is predictable . "
p612
g2
tp613
a(S'asia authors herself as anna battista , an italian superstar and aspiring directress who just happens to be her own worst enemy . '
p614
g2
tp615
a(S"roman coppola may never become the filmmaker his dad was , but heck \x96 few filmmakers will . but based on cq , i'll certainly be keeping an eye out for his next project . "
p616
g2
tp617
a(S'an amusing , breezily apolitical documentary about life on the campaign trail . '
p618
g2
tp619
a(S"high on melodrama . but it's emotionally engrossing , too , thanks to strong , credible performances from the whole cast . "
p620
g2
tp621
a(S'finally , a genre movie that delivers -- in a couple of genres , no less . '
p622
g2
tp623
a(S"it's not so much enjoyable to watch as it is enlightening to listen to new sides of a previous reality , and to visit with some of the people who were able to make an impact in the theater world . "
p624
g2
tp625
a(S'spielberg is the rare director who does not want to invite viewers to gawk at or applaud his special effects . he just wants them to be part of the action , the wallpaper of his chosen reality . here , thankfully , they are . '
p626
g2
tp627
a(S'post 9/11 the philosophical message of " personal freedom first " might not be as palatable as intended . '
p628
g2
tp629
a(S'hu and liu offer natural , matter-of-fact performances that glint with sorrow , longing and love . '
p630
g2
tp631
a(S'this bold and lyrical first feature from raja amari expands the pat notion that middle-aged women just wanna have fun into a rousing treatise of sensual empowerment . '
p632
g2
tp633
a(S"easier to respect than enthuse over , andersson's rigorous personal vision is not only distanced but distancing . "
p634
g2
tp635
a(S'girls gone wild and gone civil again'
p636
g2
tp637
a(S' . . . tunney is allowed to build an uncommonly human character , an almost real-live girl complete with trouble and hope . '
p638
g2
tp639
a(S'while this film is not in the least surprising , it is still ultimately very satisfying . think of it as a sort of comfort food for the mind . '
p640
g2
tp641
a(S'clever , brutal and strangely soulful movie . '
p642
g2
tp643
a(S' . . . always remains movingly genuine . '
p644
g2
tp645
a(S'an intelligent fiction about learning through cultural clash . '
p646
g2
tp647
a(S'will grab your children by the imagination and amaze them and amuse them . '
p648
g2
tp649
a(S'a remarkable 179-minute meditation on the nature of revolution . '
p650
g2
tp651
a(S'those who would follow haneke on his creepy explorations . . . are rewarded by brutal , committed performances from huppert and magimel . '
p652
g2
tp653
a(S'an involving true story of a chinese actor who takes up drugs and winds up in an institution--acted mostly by the actual people involved . '
p654
g2
tp655
a(S"hands down the year's most thought-provoking film . but it pays a price for its intricate intellectual gamesmanship . "
p656
g2
tp657
a(S"it's a terrific american sports movie and dennis quaid is its athletic heart . "
p658
g2
tp659
a(S"this is such a high-energy movie where the drumming and the marching are so excellent , who cares if the story's a little weak . "
p660
g2
tp661
a(S'compelling revenge thriller , though somewhat weakened by a miscast leading lady . '
p662
g2
tp663
a(S"it's amazingly perceptive in its subtle , supportive but unsentimental look at the marks family . "
p664
g2
tp665
a(S'a whole lot foul , freaky and funny . '
p666
g2
tp667
a(S'family fare . '
p668
g2
tp669
a(S'attal mixes comedy with a serious exploration of ego and jealousy within a seemingly serene marriage . '
p670
g2
tp671
a(S'the diversity of the artists represented , both in terms of style and ethnicity , prevents the proceedings from feeling repetitious , as does the appropriately brief 40-minute running time . '
p672
g2
tp673
a(S'the pianist is a fine valedictory work for polanski , made richer by his own experiences , making his other movies somehow richer in the bargain . '
p674
g2
tp675
a(S'foster nails the role , giving a tight , focused performance illuminated by shards of feeling . '
p676
g2
tp677
a(S'even if you can\'t pronounce " gyro " correctly , you\'ll appreciate much of vardalos\' humor , which transcends ethnic boundaries . '
p678
g2
tp679
a(S"is office work really as alienating as 'bartleby' so effectively makes it ? "
p680
g2
tp681
a(S"farrell . . . thankfully manages to outshine the role and successfully plays the foil to willis's world-weary colonel . "
p682
g2
tp683
a(S"audiences conditioned to getting weepy over saucer-eyed , downy-cheeked moppets and their empathetic caretakers will probably feel emotionally cheated by the film's tart , sugar-free wit . "
p684
g2
tp685
a(S"bennett's dramatization of her personal descent into post-breakup perdition has a morbid appeal that's tough to shake . "
p686
g2
tp687
a(S'an intriguing and entertaining introduction to johnson . '
p688
g2
tp689
a(S"as expected , sayles' smart wordplay and clever plot contrivances are as sharp as ever , though they may be overshadowed by some strong performances . "
p690
g2
tp691
a(S'a model of what films like this should be like . '
p692
g2
tp693
a(S"as weber and weissman demonstrate with such insight and celebratory verve , the cockettes weren't as much about gender , sexual preference or political agitprop as they were simply a triumph of the indomitable human will to rebel , connect and create . "
p694
g2
tp695
a(S"yeah , these flicks are just that damn good . isn't it great ? "
p696
g2
tp697
a(S'an unbelievably fun film just a leading man away from perfection . '
p698
g2
tp699
a(S"over-the-top and a bit ostentatious , this is a movie that's got oodles of style and substance . "
p700
g2
tp701
a(S' . . . a poignant and powerful narrative that reveals that reading writing and arithmetic are not the only subjects to learn in life . '
p702
g2
tp703
a(S'nicely serves as an examination of a society in transition . '
p704
g2
tp705
a(S'boisterous , heartfelt comedy . '
p706
g2
tp707
a(S"a tender and touching drama , based on the true story of a troubled african-american's quest to come to terms with his origins , reveals the yearning we all have in our hearts for acceptance within the family circle . "
p708
g2
tp709
a(S'as a randy film about sexy people in gorgeous places being pushed and pulled ( literally and figuratively ) by desire . . . [sex and luc\xeda] makes for an arousing good time . '
p710
g2
tp711
a(S'absorbing character study by andr\xe9 turpin . '
p712
g2
tp713
a(S"celebrated at sundance , this slight comedy of manners has winning performances and a glossy , glib charm that's hard to beat . "
p714
g2
tp715
a(S"renner's performance as dahmer is unforgettable , deeply absorbing . "
p716
g2
tp717
a(S"if no one singles out any of these performances as award-worthy , it's only because we would expect nothing less from this bunch . "
p718
g2
tp719
a(S"if you love reading and/or poetry , then by all means check it out . you'll probably love it . "
p720
g2
tp721
a(S'though of particular interest to students and enthusiast of international dance and world music , the film is designed to make viewers of all ages , cultural backgrounds and rhythmic ability want to get up and dance . '
p722
g2
tp723
a(S'energetic and boldly provocative . '
p724
g2
tp725
a(S'star wars is back in a major way . '
p726
g2
tp727
a(S"it's a movie -- and an album -- you won't want to miss . "
p728
g2
tp729
a(S"it's rare to find a film that dazzles the eye , challenges the brain , and satisfies our lust for fast-paced action , but minority report delivers all that and a whole lot more . "
p730
g2
tp731
a(S"while not all transitions to adulthood are so fraught , there's much truth and no small amount of poetry in girls can't swim . "
p732
g2
tp733
a(S"if there's nothing fresh about wannabes , which was written by mr . demeo , who produced and directed the film with charles a . addessi , much of the time the movie feels authentic . "
p734
g2
tp735
a(S"jacquot's tosca is a treat . "
p736
g2
tp737
a(S'by the end of no such thing the audience , like beatrice , has a watchful affection for the monster . '
p738
g2
tp739
a(S"if you liked such movies as notting hill , four weddings and a funeral , bridget jones' diary or high fidelity , then you won't want to miss about a boy . "
p740
g2
tp741
a(S' . . . the gentle melding of drama and comedy makes " what time is it there ? " something the true film buff will enjoy . '
p742
g2
tp743
a(S"romanek keeps the film constantly taut . . . reflecting the character's instability with a metaphorical visual style and an unnerving , heartbeat-like score . "
p744
g2
tp745
a(S'i whole-heartedly recommend that everyone see this movie-- for its historical significance alone . '
p746
g2
tp747
a(S'hey , who else needs a shower ? '
p748
g2
tp749
a(S'longley has constructed a remarkably coherent , horrifically vivid snapshot of those turbulent days . '
p750
g2
tp751
a(S"although it bangs a very cliched drum at times , this crowd-pleaser's fresh dialogue , energetic music , and good-natured spunk are often infectious . "
p752
g2
tp753
a(S"often gruelling and heartbreaking to witness , but seldahl and wollter's sterling performances raise this far above the level of the usual maudlin disease movie . "
p754
g2
tp755
a(S'go see it and enjoy . '
p756
g2
tp757
a(S'the stunning , dreamlike visuals will impress even those viewers who have little patience for euro-film pretension . '
p758
g2
tp759
a(S"george clooney proves he's quite a talented director and sam rockwell shows us he's a world-class actor with confessions of a dangerous mind . "
p760
g2
tp761
a(S"there's a vastness implied in metropolis that is just breathtaking . "
p762
g2
tp763
a(S'murderous maids may well be the most comprehensive of these films and also strike closest to the truth . '
p764
g2
tp765
a(S"the people in dogtown and z-boys are so funny , aggressive and alive , you have to watch them because you can't wait to see what they do next . "
p766
g2
tp767
a(S"as green-guts monster movies go , it's a beaut . "
p768
g2
tp769
a(S'as bundy , michael reilly burke ( octopus 2 : river of fear ) has just the right amount of charisma and menace . '
p770
g2
tp771
a(S'a deceivingly simple film , one that grows in power in retrospect . '
p772
g2
tp773
a(S"ana is a vivid , vibrant individual and the movie's focus upon her makes it successful and accessible . "
p774
g2
tp775
a(S'a slick , skillful little horror film . '
p776
g2
tp777
a(S'a very witty take on change , risk and romance , and the film uses humour to make its points about acceptance and growth . '
p778
g2
tp779
a(S'[anderson] uses a hit-or-miss aesthetic that hits often enough to keep the film entertaining even if none of it makes a lick of sense . '
p780
g2
tp781
a(S"bubba ho-tep is a wonderful film with a bravura lead performance by bruce campbell that doesn't deserve to leave the building until everyone is aware of it . "
p782
g2
tp783
a(S'despite the long running time , the pace never feels slack -- there\'s no scene that screams " bathroom break ! " '
p784
g2
tp785
a(S'bullock does a good job here of working against her natural likability . '
p786
g2
tp787
a(S'a film of precious increments artfully camouflaged as everyday activities . '
p788
g2
tp789
a(S'kinnear gives a tremendous performance . '
p790
g2
tp791
a(S"the best movie of its kind since 'brazil . ' lucas , take notes . this is how you use special effects . "
p792
g2
tp793
a(S' " frailty " has been written so well , that even a simple " goddammit ! " near the end takes on a whole other meaning . '
p794
g2
tp795
a(S"one hour photo is an intriguing snapshot of one man and his delusions ; it's just too bad it doesn't have more flashes of insight . "
p796
g2
tp797
a(S'kaufman creates an eerie sense of not only being there at the time of these events but the very night matthew was killed . '
p798
g2
tp799
a(S'chalk it up to my adoration for both de niro and murphy , but i had a pretty good time with this movie - despite its myriad flaws . '
p800
g2
tp801
a(S'its scenes and sensibility are all more than familiar , but it exudes a kind of nostalgic spy-movie charm and , at the same time , is so fresh and free of the usual thriller nonsense that it all seems to be happening for the first time . '
p802
g2
tp803
a(S"it represents better-than-average movie-making that doesn't demand a dumb , distracted audience . "
p804
g2
tp805
a(S'a charming yet poignant tale of the irrevocable ties that bind . '
p806
g2
tp807
a(S'an enchanting spectacular for potter fans anxious to ride the hogwarts express toward a new year of magic and mischief . '
p808
g2
tp809
a(S'the talents of the actors helps " moonlight mile " rise above its heart-on-its-sleeve writing . '
p810
g2
tp811
a(S"it's a humble effort , but spiced with wry humor and genuine pathos , especially between morgan and redgrave . "
p812
g2
tp813
a(S'this examination of aquatic life off the shores of the baja california peninsula of mexico offers an engrossing way to demonstrate the virtues of the imax format . '
p814
g2
tp815
a(S'dark and disturbing , but also surprisingly funny . '
p816
g2
tp817
a(S'the movie has an avalanche of eye-popping visual effects . '
p818
g2
tp819
a(S"starts off with a bang , but then fizzles like a wet stick of dynamite at the very end . it's still worth a look . "
p820
g2
tp821
a(S"most impressive , though , is the film's open-ended finale that refuses to entirely close its characters' emotional wounds . "
p822
g2
tp823
a(S'a hip ride into hyper-time , clockstoppers is a lively and enjoyable adventure for all ages at any time . '
p824
g2
tp825
a(S"grenier is terrific , bringing an unforced , rapid-fire delivery to toback's heidegger- and nietzsche-referencing dialogue . "
p826
g2
tp827
a(S' . . . a polished and relatively sincere piece of escapism . '
p828
g2
tp829
a(S"the story wraps back around on itself in the kind of elegant symmetry that's rare in film today , but be warned : it's a slow slog to get there . "
p830
g2
tp831
a(S'the whole cast looks to be having so much fun with the slapstick antics and silly street patois , tossing around obscure expressions like bellini and mullinski , that the compact 86 minutes breezes by . '
p832
g2
tp833
a(S' . . . has freaky scenes where the crew wonder if they\'re ghosts imagining themselves as alive . it\'s a sly wink to the others without becoming a postmodern joke , made creepy by its " men in a sardine can " warped logic . '
p834
g2
tp835
a(S"long after you leave justine , you'll be wondering what will happen to her and wishing her the best -- whatever that might mean . "
p836
g2
tp837
a(S"still pretentious and filled with subtext , but entertaining enough at 'face value' to recommend to anyone looking for something different . "
p838
g2
tp839
a(S'call me a wimp , but i cried , not once , but three times in this animated sweet film . '
p840
g2
tp841
a(S'notorious c . h . o . has oodles of vulgar highlights . '
p842
g2
tp843
a(S'an inspiring and heart-affecting film about the desperate attempts of vietnamese refugees living in u . s . relocation camps to keep their hopes alive in 1975 . '
p844
g2
tp845
a(S'the level of maturity displayed by this 33-year-old first-time feature director is astonishing , considering her inexperience and her subject matter . '
p846
g2
tp847
a(S'a splendid entertainment , young in spirit but accomplished in all aspects with the fullness of spirit and sense of ease that comes only with experience . '
p848
g2
tp849
a(S"disney's live-action division has a history of releasing cinematic flotsam , but this is one occasion when they have unearthed a rare gem . "
p850
g2
tp851
a(S'if the message seems more facile than the earlier films , the images have such a terrible beauty you may not care . '
p852
g2
tp853
a(S'whether kiss is a future cult classic or destined to be completely forgotten is open to question , but the risk-takers in the crowd should check it out and form their own opinion . '
p854
g2
tp855
a(S"there are moments in this account of the life of artist frida kahlo that are among cinema's finest this year . unfortunately , they're sandwiched in between the most impossibly dry account of kahlo's life imaginable . "
p856
g2
tp857
a(S'there are moments it can be heart-rending in an honest and unaffected ( and gentle ) way . '
p858
g2
tp859
a(S'stay clear of reminding yourself that it\'s a " true story " and you\'re likely to have one helluva time at the movies . '
p860
g2
tp861
a(S'there are just enough twists in the tale to make it far more satisfying than almost any horror film in recent memory . '
p862
g2
tp863
a(S"the sundance film festival has become so buzz-obsessed that fans and producers descend upon utah each january to ferret out the next great thing . 'tadpole' was one of the films so declared this year , but it's really more of the next pretty good thing . "
p864
g2
tp865
a(S"working from elliott's memoir , rohmer fashions the sort of delicate , articulate character- and- relationship study he's favored for decades . "
p866
g2
tp867
a(S'the story feels more like a serious read , filled with heavy doses of always enticing sayles dialogue . '
p868
g2
tp869
a(S'when it really counts . . . bloody sunday connects on a visceral level that transcends language . '
p870
g2
tp871
a(S'the crime matters less than the characters , although the filmmakers supply enough complications , close calls and double-crosses to satisfy us . '
p872
g2
tp873
a(S'[an] hilarious romantic comedy . '
p874
g2
tp875
a(S'the actors are fantastic . they are what makes it worth the trip to the theatre . '
p876
g2
tp877
a(S"ranging from funny to shattering and featuring some of the year's best acting , personal velocity gathers plenty of dramatic momentum . "
p878
g2
tp879
a(S'i complain all the time about seeing the same ideas repeated in films over and over again , but the bourne identity proves that a fresh take is always possible . '
p880
g2
tp881
a(S"recalls quiet freak-outs like l'avventura and repulsion . "
p882
g2
tp883
a(S"only an epic documentary could get it all down , and spike lee's jim brown : all american at long last gives its subject a movie worthy of his talents . "
p884
g2
tp885
a(S' . . . as the story congeals you feel the pieces of the star wars saga falling into place in a way that makes your spine tingle with revelation and excitement . '
p886
g2
tp887
a(S"a great comedy filmmaker knows great comedy needn't always make us laugh . tim story's not there yet - but 'barbershop' shows he's on his way . "
p888
g2
tp889
a(S'the movie is one of the best examples of artful large format filmmaking you are likely to see anytime soon . '
p890
g2
tp891
a(S'lends itself to the narcotizing bland ( sinister , though not nearly so sinister as the biennial disney girl movie ) machinations of the biennial disney boy movie . '
p892
g2
tp893
a(S'well-written , nicely acted and beautifully shot and scored , the film works on several levels , openly questioning social mores while ensnaring the audience with its emotional pull . '
p894
g2
tp895
a(S'jason x has cheesy effects and a hoary plot , but its macabre , self-deprecating sense of humor makes up for a lot . '
p896
g2
tp897
a(S"[taymor] utilizes the idea of making kahlo's art a living , breathing part of the movie , often catapulting the artist into her own work . this isn't a new idea . it's been done before but never so vividly or with so much passion . "
p898
g2
tp899
a(S'an impressive if flawed effort that indicates real talent . '
p900
g2
tp901
a(S'two generations within one family test boundaries in this intelligent and restrained coming-of-age drama . '
p902
g2
tp903
a(S"it sounds sick and twisted , but the miracle of shainberg's film is that it truly is romance"
p904
g2
tp905
a(S'disturbing and brilliant documentary . '
p906
g2
tp907
a(S' . . . mesmerizing , an eye-opening tour of modern beijing culture in a journey of rebellion , retreat into oblivion and return . '
p908
g2
tp909
a(S"one of the best examples of how to treat a subject , you're not fully aware is being examined , much like a photo of yourself you didn't know was being taken . "
p910
g2
tp911
a(S"not too far below the gloss you can still feel director denis villeneuve's beating heart and the fondness he has for his characters . "
p912
g2
tp913
a(S'as if to prove a female director can make a movie with no soft edges , kathryn bigelow offers no sugar-coating or interludes of lightness . her film is unrelentingly claustrophobic and unpleasant . '
p914
g2
tp915
a(S'[villeneuve] seems to realize intuitively that even morality is reduced to an option by the ultimate mysteries of life and death . '
p916
g2
tp917
a(S'the result is mesmerizing -- filled with menace and squalor . '
p918
g2
tp919
a(S'fisher has bared his soul and confronted his own shortcomings here in a way . . . that feels very human and very true to life . '
p920
g2
tp921
a(S"it's fun , but the code-talk will fly right over everyone's head"
p922
g2
tp923
a(S"bourne , jason bourne . he can scale a building like a super hero , he can out-stealth any agent , he'll get the girl . he's super spy ! "
p924
g2
tp925
a(S'what makes the movie a comedy is the way it avoids the more serious emotions involved . '
p926
g2
tp927
a(S'an exhilarating experience . '
p928
g2
tp929
a(S'this cuddly sequel to the 1999 hit is a little more visually polished , a little funnier , and a little more madcap . '
p930
g2
tp931
a(S"the pleasures of super troopers may be fleeting , but they'll register strongly with anybody who still retains a soft spot for precollegiate humor . "
p932
g2
tp933
a(S'the film is exhilarating to watch because sandler , liberated from the constraints of formula , reveals unexpected depths as an actor . '
p934
g2
tp935
a(S"a distant , even sterile , yet compulsively watchable look at the sordid life of hogan's heroes star bob crane . "
p936
g2
tp937
a(S"the film delivers not just the full assault of reno's immense wit and insight , but a time travel back to what it felt like during those unforgettably uncertain days . "
p938
g2
tp939
a(S'what might have been a predictably heartwarming tale is suffused with complexity . '
p940
g2
tp941
a(S"sound the trumpets : for the first time since desperately seeking susan , madonna doesn't suck as an actress . "
p942
g2
tp943
a(S"although very much like the first movie based on j . k . rowling's phenomenal fantasy best sellers , this second go-round possesses a quite pleasing , headlong thrust and a likably delinquent attitude . "
p944
g2
tp945
a(S'[ " take care of my cat " ] is an honestly nice little film that takes us on an examination of young adult life in urban south korea through the hearts and minds of the five principals . '
p946
g2
tp947
a(S'as the story moves inexorably through its seven day timeframe , the picture becomes increasingly mesmerizing . '
p948
g2
tp949
a(S'maguire is a surprisingly effective peter/spider-man . '
p950
g2
tp951
a(S"not a cozy or ingratiating work , but it's challenging , sometimes clever , and always interesting , and those are reasons enough to see it . "
p952
g2
tp953
a(S'the film runs on equal parts of innocence and wisdom -- wisdom that comes with experience . it has fun being grown up . '
p954
g2
tp955
a(S'like old myths and wonder tales spun afresh . '
p956
g2
tp957
a(S'rarely do films come along that are as intelligent , exuberant , and moving as monsoon wedding . '
p958
g2
tp959
a(S'one scarcely needs the subtitles to enjoy this colorful action farce . '
p960
g2
tp961
a(S'quite funny for the type of movie it is . . . '
p962
g2
tp963
a(S"it's often infuriatingly glib and posturing , and yet it has been made with great evident care and manages to deliver up the man in a way to arouse further curiosity in even the most unknowing viewer . "
p964
g2
tp965
a(S"one of [herzog's] least inspired works . "
p966
g2
tp967
a(S'this boisterous comedy serves up a cruel reminder of the fate of hundreds of thousands of chinese , one which can only qualify as a terrible tragedy . '
p968
g2
tp969
a(S"elling really is about a couple of crazy guys , and it's therapeutic to laugh along with them . "
p970
g2
tp971
a(S'never [sinks] into exploitation . '
p972
g2
tp973
a(S'an irresistible combination of a rousing good story set on a truly grand scale . '
p974
g2
tp975
a(S"there's no denying the physically spectacular qualities of the film . . . or the emotional integrity of the performances . "
p976
g2
tp977
a(S'few films this year have been as resolute in their emotional nakedness . '
p978
g2
tp979
a(S'exquisitely acted and masterfully if preciously interwoven\x85 [the film] addresses in a fascinating , intelligent manner the intermingling of race , politics and local commerce . '
p980
g2
tp981
a(S"stevenson's performance is at once clueless and fiercely committed , a volatile combination . "
p982
g2
tp983
a(S'this is a very fine movie -- go see it . '
p984
g2
tp985
a(S"as shaky as the plot is , kaufman's script is still memorable for some great one-liners . "
p986
g2
tp987
a(S'despite its flaws , secretary stays in your head and makes you question your own firmly held positions . '
p988
g2
tp989
a(S'one of those rare , exhilarating cinematic delights that gets even better in hindsight , as you mull over its every nuance in your mind . '
p990
g2
tp991
a(S'not everything works , but the average is higher than in mary and most other recent comedies . '
p992
g2
tp993
a(S'a byzantine melodrama that stimulates the higher brain functions as well as the libido . '
p994
g2
tp995
a(S"a sensitive and expertly acted crowd-pleaser that isn't above a little broad comedy and a few unabashedly sentimental tears . "
p996
g2
tp997
a(S"the film's sharp , often mischievous sense of humor will catch some off guard . . . "
p998
g2
tp999
a(S'does what a fine documentary does best : it extends a warm invitation into an unfamiliar world , then illuminates it fully and allows the larger implications of the journey to sink in unobtrusively . '
p1000
g2
tp1001
a(S'simplistic , silly and tedious . '
p1002
S'neg'
p1003
tp1004
a(S"it's so laddish and juvenile , only teenage boys could possibly find it funny . "
p1005
g1003
tp1006
a(S'exploitative and largely devoid of the depth or sophistication that would make watching such a graphic treatment of the crimes bearable . '
p1007
g1003
tp1008
a(S'[garbus] discards the potential for pathological study , exhuming instead , the skewed melodrama of the circumstantial situation . '
p1009
g1003
tp1010
a(S'a visually flashy but narratively opaque and emotionally vapid exercise in style and mystification . '
p1011
g1003
tp1012
a(S"the story is also as unoriginal as they come , already having been recycled more times than i'd care to count . "
p1013
g1003
tp1014
a(S"about the only thing to give the movie points for is bravado -- to take an entirely stale concept and push it through the audience's meat grinder one more time . "
p1015
g1003
tp1016
a(S'not so much farcical as sour . '
p1017
g1003
tp1018
a(S'unfortunately the story and the actors are served with a hack script . '
p1019
g1003
tp1020
a(S'all the more disquieting for its relatively gore-free allusions to the serial murders , but it falls down in its attempts to humanize its subject . '
p1021
g1003
tp1022
a(S'a sentimental mess that never rings true . '
p1023
g1003
tp1024
a(S'while the performances are often engaging , this loose collection of largely improvised numbers would probably have worked better as a one-hour tv documentary . '
p1025
g1003
tp1026
a(S'interesting , but not compelling . '
p1027
g1003
tp1028
a(S'on a cutting room floor somewhere lies . . . footage that might have made no such thing a trenchant , ironic cultural satire instead of a frustrating misfire . '
p1029
g1003
tp1030
a(S"while the ensemble player who gained notice in guy ritchie's lock , stock and two smoking barrels and snatch has the bod , he's unlikely to become a household name on the basis of his first starring vehicle . "
p1031
g1003
tp1032
a(S"there is a difference between movies with the courage to go over the top and movies that don't care about being stupid"
p1033
g1003
tp1034
a(S"nothing here seems as funny as it did in analyze this , not even joe viterelli as de niro's right-hand goombah . "
p1035
g1003
tp1036
a(S'such master screenwriting comes courtesy of john pogue , the yale grad who previously gave us " the skulls " and last year\'s " rollerball . " enough said , except : film overboard ! '
p1037
g1003
tp1038
a(S'here , common sense flies out the window , along with the hail of bullets , none of which ever seem to hit sascha . '
p1039
g1003
tp1040
a(S'this 100-minute movie only has about 25 minutes of decent material . '
p1041
g1003
tp1042
a(S'the execution is so pedestrian that the most positive comment we can make is that rob schneider actually turns in a pretty convincing performance as a prissy teenage girl . '
p1043
g1003
tp1044
a(S"on its own , it's not very interesting . as a remake , it's a pale imitation . "
p1045
g1003
tp1046
a(S"it shows that some studios firmly believe that people have lost the ability to think and will forgive any shoddy product as long as there's a little girl-on-girl action . "
p1047
g1003
tp1048
a(S"a farce of a parody of a comedy of a premise , it isn't a comparison to reality so much as it is a commentary about our knowledge of films . "
p1049
g1003
tp1050
a(S'as exciting as all this exoticism might sound to the typical pax viewer , the rest of us will be lulled into a coma . '
p1051
g1003
tp1052
a(S'the party scenes deliver some tawdry kicks . the rest of the film . . . is dudsville . '
p1053
g1003
tp1054
a(S"our culture is headed down the toilet with the ferocity of a frozen burrito after an all-night tequila bender \x97 and i know this because i've seen 'jackass : the movie . '"
p1055
g1003
tp1056
a(S'the criticism never rises above easy , cynical potshots at morally bankrupt characters . . . '
p1057
g1003
tp1058
a(S"the movie's something-borrowed construction feels less the product of loving , well integrated homage and more like a mere excuse for the wan , thinly sketched story . killing time , that's all that's going on here . "
p1059
g1003
tp1060
a(S'stupid , infantile , redundant , sloppy , over-the-top , and amateurish . yep , it\'s " waking up in reno . " go back to sleep . '
p1061
g1003
tp1062
a(S'somewhere in the middle , the film compels , as demme experiments he harvests a few movie moment gems , but the field of roughage dominates . '
p1063
g1003
tp1064
a(S'the action clich\xe9s just pile up . '
p1065
g1003
tp1066
a(S"payami tries to raise some serious issues about iran's electoral process , but the result is a film that's about as subtle as a party political broadcast . "
p1067
g1003
tp1068
a(S"the only surprise is that heavyweights joel silver and robert zemeckis agreed to produce this ; i assume the director has pictures of them cavorting in ladies' underwear . "
p1069
g1003
tp1070
a(S"another useless recycling of a brutal mid-'70s american sports movie . "
p1071
g1003
tp1072
a(S"i didn't laugh . i didn't smile . i survived . "
p1073
g1003
tp1074
a(S'please , someone , stop eric schaeffer before he makes another film . '
p1075
g1003
tp1076
a(S"most of the problems with the film don't derive from the screenplay , but rather the mediocre performances by most of the actors involved"
p1077
g1003
tp1078
a(S" . . . if you're just in the mood for a fun -- but bad -- movie , you might want to catch freaks as a matinee . "
p1079
g1003
tp1080
a(S'curling may be a unique sport but men with brooms is distinctly ordinary . '
p1081
g1003
tp1082
a(S'though the opera itself takes place mostly indoors , jacquot seems unsure of how to evoke any sort of naturalism on the set . '
p1083
g1003
tp1084
a(S"there's no getting around the fact that this is revenge of the nerds revisited -- again . "
p1085
g1003
tp1086
a(S"the effort is sincere and the results are honest , but the film is so bleak that it's hardly watchable . "
p1087
g1003
tp1088
a(S"analyze that regurgitates and waters down many of the previous film's successes , with a few new swings thrown in . "
p1089
g1003
tp1090
a(S"with flashbulb editing as cover for the absence of narrative continuity , undisputed is nearly incoherent , an excuse to get to the closing bout . . . by which time it's impossible to care who wins . "
p1091
g1003
tp1092
a(S'stinks from start to finish , like a wet burlap sack of gloom . '
p1093
g1003
tp1094
a(S'to the civilized mind , a movie like ballistic : ecks vs . sever is more of an ordeal than an amusement . '
p1095
g1003
tp1096
a(S"equlibrium could pass for a thirteen-year-old's book report on the totalitarian themes of 1984 and farenheit 451 . "
p1097
g1003
tp1098
a(S"the lack of naturalness makes everything seem self-consciously poetic and forced . . . it's a pity that [nelson's] achievement doesn't match his ambition . "
p1099
g1003
tp1100
a(S'everything is off . '
p1101
g1003
tp1102
a(S"when seagal appeared in an orange prison jumpsuit , i wanted to stand up in the theater and shout , 'hey , kool-aid ! '"
p1103
g1003
tp1104
a(S'an easy watch , except for the annoying demeanour of its lead character . '
p1105
g1003
tp1106
a(S"imagine the cleanflicks version of 'love story , ' with ali macgraw's profanities replaced by romance-novel platitudes . "
p1107
g1003
tp1108
a(S'pc stability notwithstanding , the film suffers from a simplistic narrative and a pat , fairy-tale conclusion . '
p1109
g1003
tp1110
a(S"forget the misleading title , what's with the unexplained baboon cameo ? "
p1111
g1003
tp1112
a(S'an odd , haphazard , and inconsequential romantic comedy . '
p1113
g1003
tp1114
a(S'though her fans will assuredly have their funny bones tickled , others will find their humor-seeking dollars best spent elsewhere . '
p1115
g1003
tp1116
a(S"pascale bailly's rom-com provides am\xe9lie's audrey tautou with another fabuleux destin -- i . e . , a banal spiritual quest . "
p1117
g1003
tp1118
a(S'a static and sugary little half-hour , after-school special about interfaith understanding , stretched out to 90 minutes . '
p1119
g1003
tp1120
a(S'watching the chemistry between freeman and judd , however , almost makes this movie worth seeing . almost . '
p1121
g1003
tp1122
a(S' . . . a pretentious and ultimately empty examination of a sick and evil woman . '
p1123
g1003
tp1124
a(S'the country bears has no scenes that will upset or frighten young viewers . unfortunately , there is almost nothing in this flat effort that will amuse or entertain them , either . '
p1125
g1003
tp1126
a(S"the cumulative effect of watching this 65-minute trifle is rather like being trapped while some weird relative trots out the video he took of the family vacation to stonehenge . before long , you're desperate for the evening to end . "
p1127
g1003
tp1128
a(S'the characters are never more than sketches . . . which leaves any true emotional connection or identification frustratingly out of reach . '
p1129
g1003
tp1130
a(S"mattei's underdeveloped effort here is nothing but a convenient conveyor belt of brooding personalities that parade about as if they were coming back from stock character camp -- a drowsy drama infatuated by its own pretentious self-examination . "
p1131
g1003
tp1132
a(S"only in its final surprising shots does rabbit-proof fence find the authority it's looking for . "
p1133
g1003
tp1134
a(S"isn't as sharp as the original . . . despite some visual virtues , 'blade ii' just doesn't cut it . "
p1135
g1003
tp1136
a(S" . . . plays like a badly edited , 91-minute trailer ( and ) the director can't seem to get a coherent rhythm going . in fact , it doesn't even seem like she tried . "
p1137
g1003
tp1138
a(S'maybe leblanc thought , " hey , the movie about the baseball-playing monkey was worse . " '
p1139
g1003
tp1140
a(S"what you expect is just what you get . . . assuming the bar of expectations hasn't been raised above sixth-grade height . "
p1141
g1003
tp1142
a(S'barry sonnenfeld owes frank the pug big time'
p1143
g1003
tp1144
a(S"the biggest problem with roger avary's uproar against the mpaa is that , even in all its director's cut glory , he's made a film that's barely shocking , barely interesting and most of all , barely anything . "
p1145
g1003
tp1146
a(S'so riddled with unanswered questions that it requires gargantuan leaps of faith just to watch it plod along . '
p1147
g1003
tp1148
a(S'i approached the usher and said that if she had to sit through it again , she should ask for a raise . '
p1149
g1003
tp1150
a(S'earnest but heavy-handed . '
p1151
g1003
tp1152
a(S"if sinise's character had a brain his ordeal would be over in five minutes but instead the plot goes out of its way to introduce obstacles for him to stumble over . "
p1153
g1003
tp1154
a(S'too slow for a younger crowd , too shallow for an older one . '
p1155
g1003
tp1156
a(S'there\'s a reason the studio didn\'t offer an advance screening . " the adventures of pluto nash " is a big time stinker . '
p1157
g1003
tp1158
a(S'a punch line without a premise , a joke built entirely from musty memories of half-dimensional characters . '
p1159
g1003
tp1160
a(S"takes one character we don't like and another we don't believe , and puts them into a battle of wills that is impossible to care about and isn't very funny . "
p1161
g1003
tp1162
a(S"the things this movie tries to get the audience to buy just won't fly with most intelligent viewers . "
p1163
g1003
tp1164
a(S"even if the enticing prospect of a lot of nubile young actors in a film about campus depravity didn't fade amid the deliberate , tiresome ugliness , it would be rendered tedious by avary's failure to construct a story with even a trace of dramatic interest . "
p1165
g1003
tp1166
a(S'sitting through the last reel ( spoiler alert ! ) is significantly less charming than listening to a four-year-old with a taste for exaggeration recount his halloween trip to the haunted house . '
p1167
g1003
tp1168
a(S'confuses its message with an ultimate desire to please , and contorting itself into an idea of expectation is the last thing any of these three actresses , nor their characters , deserve . '
p1169
g1003
tp1170
a(S'deadly dull , pointless meditation on losers in a gone-to-seed hotel . '
p1171
g1003
tp1172
a(S'with this new rollerball , sense and sensibility have been overrun by what can only be characterized as robotic sentiment . '
p1173
g1003
tp1174
a(S"one can only assume that the jury who bestowed star hoffman's brother gordy with the waldo salt screenwriting award at 2002's sundance festival were honoring an attempt to do something different over actually pulling it off"
p1175
g1003
tp1176
a(S"a movie more to be prescribed than recommended -- as visually bland as a dentist's waiting room , complete with soothing muzak and a cushion of predictable narrative rhythms . "
p1177
g1003
tp1178
a(S'sex ironically has little to do with the story , which becomes something about how lame it is to try and evade your responsibilities and that you should never , ever , leave a large dog alone with a toddler . but never mind all that ; the boobs are fantasti'
p1179
g1003
tp1180
a(S"the script covers huge , heavy topics in a bland , surfacey way that doesn't offer any insight into why , for instance , good things happen to bad people . "
p1181
g1003
tp1182
a(S'a portrait of alienation so perfect , it will certainly succeed in alienating most viewers . '
p1183
g1003
tp1184
a(S'the code talkers deserved better than a hollow tribute . '
p1185
g1003
tp1186
a(S'skip the film and buy the philip glass soundtrack cd . '
p1187
g1003
tp1188
a(S'feels like a cold old man going through the motions . '
p1189
g1003
tp1190
a(S"dignified ceo's meet at a rustic retreat and pee against a tree . can you bear the laughter ? "
p1191
g1003
tp1192
a(S'dull and mechanical , kinda like a very goofy museum exhibit'
p1193
g1003
tp1194
a(S"there's no point of view , no contemporary interpretation of joan's prefeminist plight , so we're left thinking the only reason to make the movie is because present standards allow for plenty of nudity . "
p1195
g1003
tp1196
a(S'beware the quirky brit-com . they can and will turn on a dime from oddly humorous to tediously sentimental . '
p1197
g1003
tp1198
a(S'has its moments -- and almost as many subplots . '
p1199
g1003
tp1200
a(S'the gags , and the script , are a mixed bag . '
p1201
g1003
tp1202
a(S'completely awful iranian drama . . . as much fun as a grouchy ayatollah in a cold mosque . '
p1203
g1003
tp1204
a(S'narratively , trouble every day is a plodding mess . '
p1205
g1003
tp1206
a(S"there's no point in extracting the bare bones of byatt's plot for purposes of bland hollywood romance . "
p1207
g1003
tp1208
a(S"directors john musker and ron clements , the team behind the little mermaid , have produced sparkling retina candy , but they aren't able to muster a lot of emotional resonance in the cold vacuum of space . "
p1209
g1003
tp1210
a(S"adam sandler's heart may be in the right place , but he needs to pull his head out of his butt"
p1211
g1003
tp1212
a(S"there's no doubting that this is a highly ambitious and personal project for egoyan , but it's also one that , next to his best work , feels clumsy and convoluted . "
p1213
g1003
tp1214
a(S"despite engaging offbeat touches , knockaround guys rarely seems interested in kicking around a raison d'etre that's as fresh-faced as its young-guns cast . "
p1215
g1003
tp1216
a(S"it's all pretty tame . the most offensive thing about the movie is that hollywood expects people to pay to see it . "
p1217
g1003
tp1218
a(S'the movie is a mess from start to finish . '
p1219
g1003
tp1220
a(S'the trouble with making this queen a thoroughly modern maiden is that it also makes her appear foolish and shallow rather than , as was more likely , a victim of mental illness . '
p1221
g1003
tp1222
a(S"i'm not saying that ice age doesn't have some fairly pretty pictures , but there's not enough substance in the story to actually give them life . "
p1223
g1003
tp1224
a(S'in the telling of a story largely untold , bui chooses to produce something that is ultimately suspiciously familiar . '
p1225
g1003
tp1226
a(S"the plot is nothing but boilerplate clich\xe9s from start to finish , and the script assumes that not only would subtlety be lost on the target audience , but that it's also too stupid to realize that they've already seen this exact same movie a hundred times"
p1227
g1003
tp1228
a(S'terminally brain dead production . '
p1229
g1003
tp1230
a(S"some episodes work , some don't . "
p1231
g1003
tp1232
a(S'beautifully filmed and well acted . . . but admittedly problematic in its narrative specifics . '
p1233
g1003
tp1234
a(S"j . lo will earn her share of the holiday box office pie , although this movie makes one thing perfectly clear : she's a pretty woman , but she's no working girl . "
p1235
g1003
tp1236
a(S"rymer doesn't trust laughs -- and doesn't conjure proper respect for followers of the whole dead-undead genre , who deserve more from a vampire pic than a few shrieky special effects . "
p1237
g1003
tp1238
a(S"not only are the film's sopranos gags incredibly dated and unfunny , they also demonstrate how desperate the makers of this 'we're -doing-it-for -the-cash' sequel were . "
p1239
g1003
tp1240
a(S'wow . i have not been this disappointed by a movie in a long time . '
p1241
g1003
tp1242
a(S'off the hook is overlong and not well-acted , but credit writer-producer-director adam watstein with finishing it at all . '
p1243
g1003
tp1244
a(S"it's a drag how nettelbeck sees working women -- or at least this working woman -- for whom she shows little understanding . "
p1245
g1003
tp1246
a(S"watching harris ham it up while physically and emotionally disintegrating over the course of the movie has a certain poignancy in light of his recent death , but boyd's film offers little else of consequence . "
p1247
g1003
tp1248
a(S"it's also curious to note that this film , like the similarly ill-timed antitrust , is easily as bad at a fraction the budget . "
p1249
g1003
tp1250
a(S"'ejemplo de una cinta en que no importa el talento de su reparto o lo interesante que pudo haber resultado su premisa , pues el resultado es francamente aburrido y , por momentos , deplorable . '"
p1251
g1003
tp1252
a(S'will probably be one of those movies barely registering a blip on the radar screen of 2002 . '
p1253
g1003
tp1254
a(S"the problem is not that it's all derivative , because plenty of funny movies recycle old tropes . the problem is that van wilder does little that is actually funny with the material . "
p1255
g1003
tp1256
a(S"there's nothing interesting in unfaithful whatsoever . "
p1257
g1003
tp1258
a(S'none of this is half as moving as the filmmakers seem to think . '
p1259
g1003
tp1260
a(S'a processed comedy chop suey . '
p1261
g1003
tp1262
a(S"as spent screen series go , star trek : nemesis is even more suggestive of a 65th class reunion mixer where only eight surviving members show up -- and there's nothing to drink . "
p1263
g1003
tp1264
a(S'fails as a dystopian movie , as a retooling of fahrenheit 451 , and even as a rip-off of the matrix . '
p1265
g1003
tp1266
a(S'full of the kind of obnoxious chitchat that only self-aware neurotics engage in . '
p1267
g1003
tp1268
a(S"an erotic thriller that's neither too erotic nor very thrilling , either . "
p1269
g1003
tp1270
a(S'the movie , like bartleby , is something of a stiff -- an extra-dry office comedy that seems twice as long as its 83 minutes . '
p1271
g1003
tp1272
a(S'with its parade of almost perpetually wasted characters . . . margarita feels like a hazy high that takes too long to shake . '
p1273
g1003
tp1274
a(S'if you value your time and money , find an escape clause and avoid seeing this trite , predictable rehash . '
p1275
g1003
tp1276
a(S"the director and her capable cast appear to be caught in a heady whirl of new age-inspired good intentions , but the spell they cast isn't the least bit mesmerizing . "
p1277
g1003
tp1278
a(S"everything is pegged into the groove of a new york dating comedy with 'issues' to simplify . "
p1279
g1003
tp1280
a(S'a dramatic comedy as pleasantly dishonest and pat as any hollywood fluff . '
p1281
g1003
tp1282
a(S'the cameo-packed , m : i-2-spoofing title sequence is the funniest 5 minutes to date in this spy comedy franchise . . . then mike myers shows up and ruins everything . '
p1283
g1003
tp1284
a(S"it comes off as so silly that you wouldn't be surprised if ba , murdock and rest of the a-team were seen giving chase in a black and red van . "
p1285
g1003
tp1286
a(S'the 50-something lovebirds are too immature and unappealing to care about . '
p1287
g1003
tp1288
a(S'so genial is the conceit , this is one of those rare pictures that you root for throughout , dearly hoping that the rich promise of the script will be realized on the screen . it never is , not fully . '
p1289
g1003
tp1290
a(S'even in the summertime , the most restless young audience deserves the dignity of an action hero motivated by something more than franchise possibilities . '
p1291
g1003
tp1292
a(S'what with all the blanket statements and dime-store ruminations on vanity , the worries of the rich and sudden wisdom , the film becomes a sermon for most of its running time . '
p1293
g1003
tp1294
a(S'one lousy movie . '
p1295
g1003
tp1296
a(S"as gamely as the movie tries to make sense of its title character , there remains a huge gap between the film's creepy , clean-cut dahmer ( jeremy renner ) and fiendish acts that no amount of earnest textbook psychologizing can bridge . "
p1297
g1003
tp1298
a(S'plodding , peevish and gimmicky . '
p1299
g1003
tp1300
a(S'the four feathers is definitely horse feathers , but if you go in knowing that , you might have fun in this cinematic sandbox . '
p1301
g1003
tp1302
a(S'oozes condescension from every pore . '
p1303
g1003
tp1304
a(S'solaris " is a shapeless inconsequential move relying on the viewer to do most of the work . '
p1305
g1003
tp1306
a(S'the direction , by george hickenlooper , has no snap to it , no wiseacre crackle or hard-bitten cynicism . '
p1307
g1003
tp1308
a(S' . . . hypnotically dull . '
p1309
g1003
tp1310
a(S'though this saga would be terrific to read about , it is dicey screen material that only a genius should touch . '
p1311
g1003
tp1312
a(S"it has plenty of laughs . it just doesn't have much else . . . especially in a moral sense . "
p1313
g1003
tp1314
a(S"an awful lot like one of [spears'] music videos in content -- except that it goes on for at least 90 more minutes and , worse , that you have to pay if you want to see it . "
p1315
g1003
tp1316
a(S'confusion is one of my least favourite emotions , especially when i have to put up with 146 minutes of it . '
p1317
g1003
tp1318
a(S"[h]ad i suffered and bled on the hard ground of ia drang , i'd want something a bit more complex than we were soldiers to be remembered by . "
p1319
g1003
tp1320
a(S'occasionally loud and offensive , but more often , it simply lulls you into a gentle waking coma . '
p1321
g1003
tp1322
a(S'it may play well as a double feature with mainstream foreign mush like my big fat greek wedding'
p1323
g1003
tp1324
a(S"by the time you reach the finale , you're likely wondering why you've been watching all this strutting and posturing . "
p1325
g1003
tp1326
a(S'journalistically dubious , inept and often lethally dull . '
p1327
g1003
tp1328
a(S"putting the primitive murderer inside a high-tech space station unleashes a pandora's box of special effects that run the gamut from cheesy to cheesier to cheesiest . "
p1329
g1003
tp1330
a(S" at its best , it's black hawk down with more heart . at its worst , it's rambo- meets-john ford . "
p1331
g1003
tp1332
a(S"exactly what you'd expect from a guy named kaos . "
p1333
g1003
tp1334
a(S'calculated swill . '
p1335
g1003
tp1336
a(S"this movie . . . doesn't deserve the energy it takes to describe how bad it is . "
p1337
g1003
tp1338
a(S'with or without ballast tanks , k-19 sinks to a harrison ford low . '
p1339
g1003
tp1340
a(S'director oliver parker labors so hard to whip life into the importance of being earnest that he probably pulled a muscle or two . '
p1341
g1003
tp1342
a(S"you might be shocked to discover that seinfeld's real life is boring . "
p1343
g1003
tp1344
a(S"it's not nearly as fresh or enjoyable as its predecessor , but there are enough high points to keep this from being a complete waste of time . "
p1345
g1003
tp1346
a(S"walsh can't quite negotiate the many inconsistencies in janice's behavior or compensate for them by sheer force of charm . "
p1347
g1003
tp1348
a(S'this 10th film in the series looks and feels tired . '
p1349
g1003
tp1350
a(S'it leers , offering next to little insight into its intriguing subject . '
p1351
g1003
tp1352
a(S'i found myself growing more and more frustrated and detached as vincent became more and more abhorrent . '
p1353
g1003
tp1354
a(S'one of the oddest and most inexplicable sequels in movie history . '
p1355
g1003
tp1356
a(S"there's nothing to gain from watching they . it isn't scary . it hates its characters . it finds no way to entertain or inspire its viewers . "
p1357
g1003
tp1358
a(S"fear permeates the whole of stortelling , todd solondz' oftentimes funny , yet ultimately cowardly autocritique . "
p1359
g1003
tp1360
a(S'the skirmishes for power waged among victims and predators settle into an undistinguished rhythm of artificial suspense . '
p1361
g1003
tp1362
a(S'thoroughly awful . '
p1363
g1003
tp1364
a(S" . . . ice age treads predictably along familiar territory , making it a passable family film that won't win many fans over the age of 12 . "
p1365
g1003
tp1366
a(S'though the film is well-intentioned , one could rent the original and get the same love story and parable . '
p1367
g1003
tp1368
a(S'just too silly and sophomoric to ensnare its target audience . '
p1369
g1003
tp1370
a(S"the video work is so grainy and rough , so dependent on being 'naturalistic' rather than carefully lit and set up , that it's exhausting to watch . "
p1371
g1003
tp1372
a(S'truly terrible . '
p1373
g1003
tp1374
a(S'a cleverly crafted but ultimately hollow mockumentary . '
p1375
g1003
tp1376
a(S'it gets bogged down by hit-and-miss topical humour before getting to the truly good stuff . '
p1377
g1003
tp1378
a(S'an achingly enthralling premise , the film is hindered by uneven dialogue and plot lapses . '
p1379
g1003
tp1380
a(S"it's tommy's job to clean the peep booths surrounding her , and after viewing this one , you'll feel like mopping up , too . "
p1381
g1003
tp1382
a(S"rifkin no doubt fancies himself something of a hubert selby jr . , but there isn't an ounce of honest poetry in his entire script ; it's simply crude and unrelentingly exploitative . "
p1383
g1003
tp1384
a(S'fluffy and disposible . '
p1385
g1003
tp1386
a(S'such a bad movie that its luckiest viewers will be seated next to one of those ignorant pinheads who talk throughout the show . '
p1387
g1003
tp1388
a(S'if you go into the theater expecting a scary , action-packed chiller , you might soon be looking for a sign . an exit sign , that is . '
p1389
g1003
tp1390
a(S'holds limited appeal to those who like explosions , sadism and seeing people beat each other to a pulp . '
p1391
g1003
tp1392
a(S'the dialogue is very choppy and monosyllabic despite the fact that it is being dubbed . '
p1393
g1003
tp1394
a(S"a feature-length , r-rated , road-trip version of mama's family . "
p1395
g1003
tp1396
a(S'what you end up getting is the vertical limit of surfing movies - memorable stunts with lots of downtime in between . '
p1397
g1003
tp1398
a(S"stealing harvard doesn't care about cleverness , wit or any other kind of intelligent humor . "
p1399
g1003
tp1400
a(S'bigelow handles the nuclear crisis sequences evenly but milks drama when she should be building suspense , and drags out too many scenes toward the end that should move quickly . '
p1401
g1003
tp1402
a(S"there's undeniable enjoyment to be had from films crammed with movie references , but the fun wears thin -- then out -- when there's nothing else happening . "
p1403
g1003
tp1404
a(S'imagine kevin smith , the blasphemous bad boy of suburban jersey , if he were stripped of most of his budget and all of his sense of humor . the result might look like vulgar . '
p1405
g1003
tp1406
a(S'suffers from a lack of clarity and audacity that a subject as monstrous and pathetic as dahmer demands . '
p1407
g1003
tp1408
a(S"what soured me on the santa clause 2 was that santa bumps up against 21st century reality so hard , it's icky . "
p1409
g1003
tp1410
a(S"it's an 88-minute highlight reel that's 86 minutes too long . "
p1411
g1003
tp1412
a(S'the film favors the scientific over the spectacular ( visually speaking ) . '
p1413
g1003
tp1414
a(S'such an incomprehensible mess that it feels less like bad cinema than like being stuck in a dark pit having a nightmare about bad cinema . '
p1415
g1003
tp1416
a(S"with the exception of mccoist , the players don't have a clue on the park . the acting isn't much better . "
p1417
g1003
tp1418
a(S'the whole affair is as predictable as can be . '
p1419
g1003
tp1420
a(S'a not-so-divine secrets of the ya-ya sisterhood with a hefty helping of re-fried green tomatoes . '
p1421
g1003
tp1422
a(S'this cloying , voices-from-the-other-side story is hell . '
p1423
g1003
tp1424
a(S"a suffocating rape-payback horror show that hinges on the subgenre's most enabling victim . . . and an ebullient affection for industrial-model meat freezers . "
p1425
g1003
tp1426
a(S'star trek was kind of terrific once , but now it is a copy of a copy of a copy . '
p1427
g1003
tp1428
a(S'[n]o matter how much good will the actors generate , showtime eventually folds under its own thinness . '
p1429
g1003
tp1430
a(S'every potential twist is telegraphed well in advance , every performance respectably muted ; the movie itself seems to have been made under the influence of rohypnol . '
p1431
g1003
tp1432
a(S'puts on airs of a hal hartley wannabe film -- without the vital comic ingredient of the hilarious writer-director himself . '
p1433
g1003
tp1434
a(S"ver wiel's desperate attempt at wit is lost , leaving the character of critical jim two-dimensional and pointless . "
p1435
g1003
tp1436
a(S'despite a performance of sustained intelligence from stanford and another of subtle humour from bebe neuwirth , as an older woman who seduces oscar , the film founders on its lack of empathy for the social milieu - rich new york intelligentsia - and its off'
p1437
g1003
tp1438
a(S'although disney follows its standard formula in this animated adventure , it feels more forced than usual . '
p1439
g1003
tp1440
a(S'gaghan . . . has thrown every suspenseful clich\xe9 in the book at this nonsensical story . '
p1441
g1003
tp1442
a(S'a sham construct based on theory , sleight-of-hand , and ill-wrought hypothesis . '
p1443
g1003
tp1444
a(S"[p]artnering murphy with robert de niro for the tv-cops comedy showtime would seem to be surefire casting . the catch is that they're stuck with a script that prevents them from firing on all cylinders . "
p1445
g1003
tp1446
a(S"'you'll laugh for not quite and hour and a half , but come out feeling strangely unsatisfied . you'll feel like you ate a reeses without the peanut butter . . . '"
p1447
g1003
tp1448
a(S'gooding offers a desperately ingratiating performance . '
p1449
g1003
tp1450
a(S"parker should be commended for taking a fresh approach to familiar material , but his determination to remain true to the original text leads him to adopt a somewhat mannered tone . . . that ultimately dulls the human tragedy at the story's core . "
p1451
g1003
tp1452
a(S'the director has injected self-consciousness into the proceedings at every turn . the results are far more alienating than involving . '
p1453
g1003
tp1454
a(S'bogdanich is unashamedly pro-serbian and makes little attempt to give voice to the other side . '
p1455
g1003
tp1456
a(S'a lack of thesis makes maryam , in the end , play out with the intellectual and emotional impact of an after-school special . '
p1457
g1003
tp1458
a(S'the worst film of the year . '
p1459
g1003
tp1460
a(S'by-the-numbers yarn . '
p1461
g1003
tp1462
a(S"without shakespeare's eloquent language , the update is dreary and sluggish . "
p1463
g1003
tp1464
a(S"if h . g . wells had a time machine and could take a look at his kin's reworked version , what would he say ? 'it looks good , sonny , but you missed the point . '"
p1465
g1003
tp1466
a(S"during the tuxedo's 90 minutes of screen time , there isn't one true 'chan moment' . "
p1467
g1003
tp1468
a(S'bisset delivers a game performance , but she is unable to save the movie . '
p1469
g1003
tp1470
a(S"watching austin powers in goldmember is like binging on cotton candy . it's sweet and fluffy at the time , but it may leave you feeling a little sticky and unsatisfied . "
p1471
g1003
tp1472
a(S'the most anti-human big studio picture since 3000 miles to graceland . '
p1473
g1003
tp1474
a(S'the film can depress you about life itself . '
p1475
g1003
tp1476
a(S"i'm sure the filmmakers found this a remarkable and novel concept , but anybody who has ever seen an independent film can report that it is instead a cheap clich\xe9 . "
p1477
g1003
tp1478
a(S'the acting is fine but the script is about as interesting as a recording of conversations at the wal-mart checkout line . '
p1479
g1003
tp1480
a(S'its weighty themes are too grave for youngsters , but the story is too steeped in fairy tales and other childish things to appeal much to teenagers . '
p1481
g1003
tp1482
a(S'the plot plummets into a comedy graveyard before janice comes racing to the rescue in the final reel . '
p1483
g1003
tp1484
a(S'sometimes there are very , very good reasons for certain movies to be sealed in a jar and left on a remote shelf indefinitely . '
p1485
g1003
tp1486
a(S'at 90 minutes this movie is short , but it feels much longer . '
p1487
g1003
tp1488
a(S"here's my advice , kev . start reading your scripts before signing that dotted line . "
p1489
g1003
tp1490
a(S"an alternately raucous and sappy ethnic sitcom . . . you'd be wise to send your regrets . "
p1491
g1003
tp1492
a(S'an ugly-duckling tale so hideously and clumsily told it feels accidental . '
p1493
g1003
tp1494
a(S"unfortunately , it's also not very good . especially compared with the television series that inspired the movie . "
p1495
g1003
tp1496
a(S"it wraps up a classic mother/daughter struggle in recycled paper with a shiny new bow and while the audience can tell it's not all new , at least it looks pretty . "
p1497
g1003
tp1498
a(S'glazed with a tawdry b-movie scum . '
p1499
g1003
tp1500
a(S'this is the kind of movie during which you want to bang your head on the seat in front of you , at its cluelessness , at its idiocy , at its utterly misplaced earnestness . '
p1501
g1003
tp1502
a(S'it winds up moving in many directions as it searches ( vainly , i think ) for something fresh to say . '
p1503
g1003
tp1504
a(S'all in all , road to perdition is more in love with strangeness than excellence . '
p1505
g1003
tp1506
a(S'a big fat pain . '
p1507
g1003
tp1508
a(S'a mimetic approximation of better films like contempt and 8 1/2 . '
p1509
g1003
tp1510
a(S'unintelligible , poorly acted , brain-slappingly bad , harvard man is ludicrous enough that it could become a cult classic . '
p1511
g1003
tp1512
a(S'watching the powerpuff girls movie , my mind kept returning to one anecdote for comparison : the cartoon in japan that gave people seizures . '
p1513
g1003
tp1514
a(S'aan opportunity wasted . '
p1515
g1003
tp1516
a(S"an inelegant combination of two unrelated shorts that falls far short of the director's previous work in terms of both thematic content and narrative strength . "
p1517
g1003
tp1518
a(S'to build a feel-good fantasy around a vain dictator-madman is off-putting , to say the least , not to mention inappropriate and wildly undeserved . '
p1519
g1003
tp1520
a(S"with the cheesiest monsters this side of a horror spoof , which they isn't , it is more likely to induce sleep than fright . "
p1521
g1003
tp1522
a(S'mild , meandering teen flick . '
p1523
g1003
tp1524
a(S'though its atmosphere is intriguing . . . the drama is finally too predictable to leave much of an impression . '
p1525
g1003
tp1526
a(S"though this rude and crude film does deliver a few gut-busting laughs , its digs at modern society are all things we've seen before . "
p1527
g1003
tp1528
a(S"although it tries to be much more , it's really just another major league . "
p1529
g1003
tp1530
a(S"astonishing isn't the word -- neither is incompetent , incoherent or just plain crap . indeed , none of these words really gets at the very special type of badness that is deuces wild . "
p1531
g1003
tp1532
a(S'one thing is for sure : this movie does not tell you a whole lot about lily chou-chou . '
p1533
g1003
tp1534
a(S"with a tone as variable as the cinematography , schaeffer's film never settles into the light-footed enchantment the material needs , and the characters' quirks and foibles never jell into charm . "
p1535
g1003
tp1536
a(S"to better understand why this didn't connect with me would require another viewing , and i won't be sitting through this one again . . . that in itself is commentary enough . "
p1537
g1003
tp1538
a(S'cuba gooding jr . valiantly mugs his way through snow dogs , but even his boisterous energy fails to spark this leaden comedy . '
p1539
g1003
tp1540
a(S"diane lane's sophisticated performance can't rescue adrian lyne's unfaithful from its sleazy moralizing . "
p1541
g1003
tp1542
a(S"not at all clear what it's trying to say and even if it were \x96 i doubt it would be all that interesting . "
p1543
g1003
tp1544
a(S'storytelling feels slight . '
p1545
g1003
tp1546
a(S'[swimfan] falls victim to sloppy plotting , an insultingly unbelievable final act and a villainess who is too crazy to be interesting . '
p1547
g1003
tp1548
a(S"this remake of lina wertmuller's 1975 eroti-comedy might just be the biggest husband-and-wife disaster since john and bo derek made the ridiculous bolero . "
p1549
g1003
tp1550
a(S'silly , loud and goofy . '
p1551
g1003
tp1552
a(S'why spend $9 on the same stuff you can get for a buck or so in that greasy little vidgame pit in the theater lobby ? '
p1553
g1003
tp1554
a(S'the french director has turned out nearly 21/2 hours of unfocused , excruciatingly tedious cinema that , half an hour in , starts making water torture seem appealing . '
p1555
g1003
tp1556
a(S'the basic premise is intriguing but quickly becomes distasteful and downright creepy . '
p1557
g1003
tp1558
a(S'the pool drowned me in boredom . '
p1559
g1003
tp1560
a(S"it's like an all-star salute to disney's cheesy commercialism . "
p1561
g1003
tp1562
a(S"it's hard to imagine any recent film , independent or otherwise , that makes as much of a mess as this one . "
p1563
g1003
tp1564
a(S'some of the computer animation is handsome , and various amusing sidekicks add much-needed levity to the otherwise bleak tale , but overall the film never rises above mediocrity . '
p1565
g1003
tp1566
a(S"there's an excellent 90-minute film here ; unfortunately , it runs for 170 . "
p1567
g1003
tp1568
a(S'as saccharine movies go , this is likely to cause massive cardiac arrest if taken in large doses . '
p1569
g1003
tp1570
a(S"die another day is only intermittently entertaining but it's hard not to be a sucker for its charms , or perhaps it's just impossible not to feel nostalgia for movies you grew up with . "
p1571
g1003
tp1572
a(S'as is often the case with ambitious , eager first-time filmmakers , mr . murray , a prolific director of music videos , stuffs his debut with more plot than it can comfortably hold . '
p1573
g1003
tp1574
a(S'the mystery of enigma is how a rich historical subject , combined with so much first-rate talent . . . could have yielded such a flat , plodding picture . '
p1575
g1003
tp1576
a(S'it throws quirky characters , odd situations , and off-kilter dialogue at us , all as if to say , " look at this ! this is an interesting movie ! " but the film itself is ultimately quite unengaging . '
p1577
g1003
tp1578
a(S'the inherent limitations of using a video game as the source material movie are once again made all too clear in this schlocky horror/action hybrid . '
p1579
g1003
tp1580
a(S'bad company . bad movie . just plain bad . '
p1581
g1003
tp1582
a(S"it's not only dull because we've seen [eddie] murphy do the genial-rogue shtick to death , but because the plot is equally hackneyed . "
p1583
g1003
tp1584
a(S"avary's film never quite emerges from the shadow of ellis' book . "
p1585
g1003
tp1586
a(S'a poorly scripted , preachy fable that forgets about unfolding a coherent , believable story in its zeal to spread propaganda . '
p1587
g1003
tp1588
a(S"while it is interesting to witness the conflict from the palestinian side , longley's film lacks balance . . . and fails to put the struggle into meaningful historical context . "
p1589
g1003
tp1590
a(S'woo has as much right to make a huge action sequence as any director , but how long will filmmakers copy the " saving private ryan " battle scenes before realizing steven spielberg got it right the first time ? '
p1591
g1003
tp1592
a(S"it's sincere to a fault , but , unfortunately , not very compelling or much fun . "
p1593
g1003
tp1594
a(S" . . . jones , despite a definitely distinctive screen presence , just isn't able to muster for a movie that , its title notwithstanding , should have been a lot nastier if it wanted to fully capitalize on its lead's specific gifts . "
p1595
g1003
tp1596
a(S'this follow-up seems so similar to the 1953 disney classic that it makes one long for a geriatric peter . '
p1597
g1003
tp1598
a(S"why , you may ask , why should you buy the movie milk when the tv cow is free ? there's no good answer to that one . "
p1599
g1003
tp1600
a(S'this slow-moving swedish film offers not even a hint of joy , preferring to focus on the humiliation of martin as he defecates in bed and urinates on the plants at his own birthday party . '
p1601
g1003
tp1602
a(S"a muddled limp biscuit of a movie , a vampire soap opera that doesn't make much sense even on its own terms . "
p1603
g1003
tp1604
a(S"there's the plot , and a maddeningly insistent and repetitive piano score that made me want to scream . "
p1605
g1003
tp1606
a(S'this is a movie so insecure about its capacity to excite that it churns up not one but two flagrantly fake thunderstorms to underscore the action . '
p1607
g1003
tp1608
a(S'this is amusing for about three minutes . '
p1609
g1003
tp1610
a(S'klein , charming in comedies like american pie and dead-on in election , delivers one of the saddest action hero performances ever witnessed . '
p1611
g1003
tp1612
a(S'it\'s rare to see a movie that takes such a speedy swan dive from " promising " to " interesting " to " familiar " before landing squarely on " stupid " . '
p1613
g1003
tp1614
a(S'this is the sort of low-grade dreck that usually goes straight to video --with a lousy script , inept direction , pathetic acting , poorly dubbed dialogue and murky cinematography , complete with visible boom mikes . '
p1615
g1003
tp1616
a(S'the direction occasionally rises to the level of marginal competence , but for most of the film it is hard to tell who is chasing who or why . '
p1617
g1003
tp1618
a(S'there are few things more frustrating to a film buff than seeing an otherwise good movie marred beyond redemption by a disastrous ending . '
p1619
g1003
tp1620
a(S"it won't harm anyone , but neither can i think of a very good reason to rush right out and see it . after all , it'll probably be in video stores by christmas , and it might just be better suited to a night in the living room than a night at the movies . "
p1621
g1003
tp1622
a(S'looks more like a travel-agency video targeted at people who like to ride bikes topless and roll in the mud than a worthwhile glimpse of independent-community guiding lights . '
p1623
g1003
tp1624
a(S"given too much time to consider the looseness of the piece , the picture begins to resemble the shapeless , grasping actors' workshop that it is . "
p1625
g1003
tp1626
a(S"they kept much of the plot but jettisoned the stuff that would make this a moving experience for people who haven't read the book . "
p1627
g1003
tp1628
a(S"just because a walk to remember is shrewd enough to activate girlish tear ducts doesn't mean it's good enough for our girls . "
p1629
g1003
tp1630
a(S"[carvey's] characters are both overplayed and exaggerated , but then again , subtlety has never been his trademark . "
p1631
g1003
tp1632
a(S"it's mildly interesting to ponder the peculiar american style of justice that plays out here , but it's so muddled and derivative that few will bother thinking it all through . "
p1633
g1003
tp1634
a(S"this dreadfully earnest inversion of the concubine love triangle eschews the previous film's historical panorama and roiling pathos for bug-eyed mugging and gay-niche condescension . "
p1635
g1003
tp1636
a(S"brown's saga , like many before his , makes for snappy prose but a stumblebum of a movie . "
p1637
g1003
tp1638
a(S"the boys' sparring , like the succession of blows dumped on guei , wears down the story's more cerebral , and likable , plot elements . "
p1639
g1003
tp1640
a(S'the script by vincent r . nebrida . . . tries to cram too many ingredients into one small pot . '
p1641
g1003
tp1642
a(S"the story is so light and sugary that were it a macy's thanksgiving day parade balloon , extra heavy-duty ropes would be needed to keep it from floating away . "
p1643
g1003
tp1644
a(S'oedekerk mugs mercilessly , and the genuinely funny jokes are few and far between . '
p1645
g1003
tp1646
a(S'since dahmer resorts to standard slasher flick thrills when it should be most in the mind of the killer , it misses a major opportunity to be truly revelatory about his psyche . '
p1647
g1003
tp1648
a(S'only those most addicted to film violence in all its forms will find anything here to appreciate . '
p1649
g1003
tp1650
a(S"cold and scattered , minority report commands interest almost solely as an exercise in gorgeous visuals . that's not vintage spielberg and that , finally , is minimally satisfying . "
p1651
g1003
tp1652
a(S'every now and again , a movie comes along to remind us of how very bad a motion picture can truly be . frank mcklusky c . i . is that movie ! '
p1653
g1003
tp1654
a(S"it's not difficult to spot the culprit early-on in this predictable thriller . "
p1655
g1003
tp1656
a(S'[a] soulless , stupid sequel . . . '
p1657
g1003
tp1658
a(S" . . . a mostly boring affair with a confusing sudden finale that's likely to irk viewers . "
p1659
g1003
tp1660
a(S'the trappings of i spy are so familiar you might as well be watching a rerun . '
p1661
g1003
tp1662
a(S'what starts off as a potentially incredibly twisting mystery becomes simply a monster chase film . '
p1663
g1003
tp1664
a(S"in the wake of saving private ryan , black hawk down and we were soldiers , you are likely to be as heartily sick of mayhem as cage's war-weary marine . "
p1665
g1003
tp1666
a(S'it is messy , uncouth , incomprehensible , vicious and absurd . '
p1667
g1003
tp1668
a(S'really does feel like a short stretched out to feature length . '
p1669
g1003
tp1670
a(S'hampered -- no , paralyzed -- by a self-indulgent script . . . that aims for poetry and ends up sounding like satire . '
p1671
g1003
tp1672
a(S"cheap , vulgar dialogue and a plot that crawls along at a snail's pace . "
p1673
g1003
tp1674
a(S"and if you appreciate the one-sided theme to lawrence's over-indulgent tirade , then knock yourself out and enjoy the big screen postcard that is a self-glorified martin lawrence lovefest . if you are willing to do this , then you so crazy ! "
p1675
g1003
tp1676
a(S'directed without the expected flair or imagination by hong kong master john woo , windtalkers airs just about every cliche in the war movie compendium across its indulgent two-hour-and-fifteen-minute length . '
p1677
g1003
tp1678
a(S"it's a very tasteful rock and roll movie . you could put it on a coffee table anywhere . "
p1679
g1003
tp1680
a(S'the movie is loaded with good intentions , but in his zeal to squeeze the action and our emotions into the all-too-familiar dramatic arc of the holocaust escape story , minac drains his movie of all individuality . '
p1681
g1003
tp1682
a(S'an infuriating film . just when you think you are making sense of it , something happens that tells you there is no sense . '
p1683
g1003
tp1684
a(S"the entire movie is so formulaic and forgettable that it's hardly over before it begins to fade from memory . "
p1685
g1003
tp1686
a(S'the setting turns out to be more interesting than any of the character dramas , which never reach satisfying conclusions . '
p1687
g1003
tp1688
a(S'as an entertainment destination for the general public , kung pow sets a new benchmark for lameness . '
p1689
g1003
tp1690
a(S'this misty-eyed southern nostalgia piece , in treading the line between sappy and sanguine , winds up mired in tear-drenched quicksand . '
p1691
g1003
tp1692
a(S'as pure over-the-top trash , any john waters movie has it beat by a country mile . '
p1693
g1003
tp1694
a(S'wendigo wants to be a monster movie for the art-house crowd , but it falls into the trap of pretention almost every time . '
p1695
g1003
tp1696
a(S'bigelow offers some flashy twists and turns that occasionally fortify this turgid fable . but for the most part , the weight of water comes off as a two-way time-switching myopic mystery that stalls in its lackluster gear of emotional blandness . '
p1697
g1003
tp1698
a(S'this film biggest problem ? no laughs . '
p1699
g1003
tp1700
a(S'less-than-compelling documentary of a yiddish theater clan . '
p1701
g1003
tp1702
a(S'that the chuck norris " grenade gag " occurs about 7 times during windtalkers is a good indication of how serious-minded the film is . '
p1703
g1003
tp1704
a(S"viewers are asked so often to suspend belief that were it not for holm's performance , the film would be a total washout . "
p1705
g1003
tp1706
a(S"it's not exactly worth the bucks to expend the full price for a date , but when it comes out on video , it's well worth a rental . "
p1707
g1003
tp1708
a(S"i can't begin to tell you how tedious , how resolutely unamusing , how thoroughly unrewarding all of this is , and what a reckless squandering of four fine acting talents . . . "
p1709
g1003
tp1710
a(S"everybody loves a david and goliath story , and this one is told almost entirely from david's point of view . "
p1711
g1003
tp1712
a(S'throw smoochy from the train ! '
p1713
g1003
tp1714
a(S"eventually , they will have a showdown , but , by then , your senses are as mushy as peas and you don't care who fires the winning shot . "
p1715
g1003
tp1716
a(S'irwin and his director never come up with an adequate reason why we should pay money for what we can get on television for free . '
p1717
g1003
tp1718
a(S'a light , engaging comedy that fumbles away almost all of its accumulated enjoyment with a crucial third act miscalculation . '
p1719
g1003
tp1720
a(S'cedar somewhat defuses this provocative theme by submerging it in a hoary love triangle . '
p1721
g1003
tp1722
a(S"to paraphrase a line from another dickens' novel , nicholas nickleby is too much like a fragment of an underdone potato . "
p1723
g1003
tp1724
a(S"the actresses may have worked up a back story for the women they portray so convincingly , but viewers don't get enough of that background for the characters to be involving as individuals rather than types . "
p1725
g1003
tp1726
a(S"the result , however well-intentioned , is ironically just the sort of disposable , kitchen-sink homage that illustrates why the whole is so often less than the sum of its parts in today's hollywood . "
p1727
g1003
tp1728
a(S'an extremely unpleasant film . '
p1729
g1003
tp1730
a(S'a movie just for friday fans , critics be damned . if you already like this sort of thing , this is that sort of thing all over again . '
p1731
g1003
tp1732
a(S'a sincere but dramatically conflicted gay coming-of-age tale . '
p1733
g1003
tp1734
a(S'wait for it to hit cable . '
p1735
g1003
tp1736
a(S'ultimately feels like just one more in the long line of films this year about the business of making movies . '
p1737
g1003
tp1738
a(S'a high-minded snoozer . '
p1739
g1003
tp1740
a(S'nothing but one relentlessly depressing situation after another for its entire running time , something that you could easily be dealing with right now in your lives . '
p1741
g1003
tp1742
a(S'77 minutes of pokemon may not last 4ever , it just seems like it does . my only wish is that celebi could take me back to a time before i saw this movie and i could just skip it . '
p1743
g1003
tp1744
a(S'the one not-so-small problem with expecting is that the entire exercise has no real point . '
p1745
g1003
tp1746
a(S'a movie you observe , rather than one you enter into . '
p1747
g1003
tp1748
a(S'[at least] moore is a real charmer . '
p1749
g1003
tp1750
a(S"john carlen's script is full of unhappy , two-dimensional characters who are anything but compelling . "
p1751
g1003
tp1752
a(S"labute can't avoid a fatal mistake in the modern era : he's changed the male academic from a lower-class brit to an american , a choice that upsets the novel's exquisite balance and shreds the fabric of the film . "
p1753
g1003
tp1754
a(S'the notion of deleting emotion from people , even in an advanced prozac nation , is so insanely dysfunctional that the rampantly designed equilibrium becomes a concept doofus . '
p1755
g1003
tp1756
a(S'stale first act , scrooge story , blatant product placement , some very good comedic songs , strong finish , dumb fart jokes . '
p1757
g1003
tp1758
a(S'unsurprisingly , the way this all works out makes the women look more like stereotypical caretakers and moral teachers , instead of serious athletes . '
p1759
g1003
tp1760
a(S'a film that loses sight of its own story . '
p1761
g1003
tp1762
a(S"adam sandler's eight crazy nights grows on you -- like a rash . "
p1763
g1003
tp1764
a(S'the big-screen scooby makes the silly original cartoon seem smart and well-crafted in comparison . '
p1765
g1003
tp1766
a(S"few of the increasingly far-fetched events that first-time writer-director neil burger follows up with are terribly convincing , which is a pity , considering barry's terrific performance . "
p1767
g1003
tp1768
a(S'gets better after foster leaves that little room . '
p1769
g1003
tp1770
a(S"the movie is as padded as allen's jelly belly . "
p1771
g1003
tp1772
a(S"resident evil isn't a product of its cinematic predecessors so much as an mtv , sugar hysteria , and playstation cocktail . "
p1773
g1003
tp1774
a(S'a rather average action film that benefits from several funny moments supplied by epps . '
p1775
g1003
tp1776
a(S' . . . unspeakably , unbearably dull , featuring reams of flatly delivered dialogue and a heroine who comes across as both shallow and dim-witted . '
p1777
g1003
tp1778
a(S'resembles a soft porn brian de palma pastiche . '
p1779
g1003
tp1780
a(S'bluto blutarsky , we miss you . '
p1781
g1003
tp1782
a(S'innocuous enough to make even jean-claude van damme look good . '
p1783
g1003
tp1784
a(S"it's a glorified sitcom , and a long , unfunny one at that . "
p1785
g1003
tp1786
a(S'woody allen can write and deliver a one liner as well as anybody . but i had a lot of problems with this movie . '
p1787
g1003
tp1788
a(S'execrable . '
p1789
g1003
tp1790
a(S'devoid of any of the qualities that made the first film so special . '
p1791
g1003
tp1792
a(S'all movie long , city by the sea swings from one approach to the other , but in the end , it stays in formula -- which is a waste of de niro , mcdormand and the other good actors in the cast . '
p1793
g1003
tp1794
a(S'plotless collection of moronic stunts is by far the worst movie of the year . '
p1795
g1003
tp1796
a(S'however sincere it may be , the rising place never quite justifies its own existence . '
p1797
g1003
tp1798
a(S'parker updates the setting in an attempt to make the film relevant today , without fully understanding what it was that made the story relevant in the first place . '
p1799
g1003
tp1800
a(S"it's sort of a 21st century morality play with a latino hip hop beat . but the second half of the movie really goes downhill . "
p1801
g1003
tp1802
a(S"paxton's uneven directorial debut fails to unlock the full potential of what is in many ways a fresh and dramatically substantial spin on the genre . "
p1803
g1003
tp1804
a(S'the script becomes lifeless and falls apart like a cheap lawn chair . '
p1805
g1003
tp1806
a(S'the script falls back on too many tried-and-true shenanigans that hardly distinguish it from the next teen comedy . '
p1807
g1003
tp1808
a(S'the film starts promisingly , but the ending is all too predictable and far too cliched to really work . '
p1809
g1003
tp1810
a(S"let's issue a moratorium , effective immediately , on treacly films about inspirational prep-school professors and the children they so heartwarmingly motivate . "
p1811
g1003
tp1812
a(S"it's the element of condescension , as the filmmakers look down on their working-class subjects from their lofty perch , that finally makes sex with strangers , which opens today in the new york metropolitan area , so distasteful . "
p1813
g1003
tp1814
a(S'alternately frustrating and rewarding . '
p1815
g1003
tp1816
a(S"it's impossible to even categorize this as a smutty guilty pleasure . "
p1817
g1003
tp1818
a(S'despite suffering a sense-of-humour failure , the man who wrote rocky does not deserve to go down with a ship as leaky as this . '
p1819
g1003
tp1820
a(S'swinging , the film makes it seem , is not a hobby that attracts the young and fit . or intelligent . '
p1821
g1003
tp1822
a(S"the most memorable moment was when green threw medical equipment at a window ; not because it was particularly funny , but because i had a serious urge to grab the old lady at the end of my aisle's walker and toss it at the screen in frustration . "
p1823
g1003
tp1824
a(S'see clockstoppers if you have nothing better to do with 94 minutes . but be warned , you too may feel time has decided to stand still . or that the battery on your watch has died . '
p1825
g1003
tp1826
a(S'suffers from over-familiarity since hit-hungry british filmmakers have strip-mined the monty formula mercilessly since 1997 . '
p1827
g1003
tp1828
a(S'there are enough throwaway references to faith and rainbows to plant smile-button faces on that segment of the populace that made a walk to remember a niche hit . '
p1829
g1003
tp1830
a(S"yes , i have given this movie a rating of zero . but fans of the show should not consider this a diss . consider it 'perfection . '"
p1831
g1003
tp1832
a(S'the cumulative effect of the movie is repulsive and depressing . '
p1833
g1003
tp1834
a(S"children and adults enamored of all things pokemon won't be disappointed . "
p1835
g1003
tp1836
a(S"i don't even care that there's no plot in this antonio banderas-lucy liu faceoff . it's still terrible ! "
p1837
g1003
tp1838
a(S'children of the century , though well dressed and well made , ultimately falls prey to the contradiction that afflicts so many movies about writers . '
p1839
g1003
tp1840
a(S"it's not so much a movie as a joint promotion for the national basketball association and teenaged rap and adolescent poster-boy lil' bow wow . "
p1841
g1003
tp1842
a(S"peralta's mythmaking could have used some informed , adult hindsight . "
p1843
g1003
tp1844
a(S'amazingly dopey . '
p1845
g1003
tp1846
a(S'a close-to-solid espionage thriller with the misfortune of being released a few decades too late . '
p1847
g1003
tp1848
a(S'cloaks a familiar anti-feminist equation ( career - kids = misery ) in tiresome romantic-comedy duds . '
p1849
g1003
tp1850
a(S'the good girl is a film in which the talent is undeniable but the results are underwhelming . '
p1851
g1003
tp1852
a(S'just a collection of this and that -- whatever fills time -- with no unified whole . '
p1853
g1003
tp1854
a(S'the animation and game phenomenon that peaked about three years ago is actually dying a slow death , if the poor quality of pokemon 4 ever is any indication . '
p1855
g1003
tp1856
a(S"only about as sexy and dangerous as an actress in a role that reminds at every turn of elizabeth berkley's flopping dolphin-gasm . "
p1857
g1003
tp1858
a(S'kids who are into this thornberry stuff will probably be in wedgie heaven . anyone else who may , for whatever reason , be thinking about going to see this movie is hereby given fair warning . '
p1859
g1003
tp1860
a(S"mr . soderbergh's direction and visual style struck me as unusually and unimpressively fussy and pretentious . "
p1861
g1003
tp1862
a(S'do you say " hi " to your lover when you wake up in the morning ? '
p1863
g1003
tp1864
a(S'it makes me feel weird / thinking about all the bad things in the world / like puppies with broken legs / and butterflies that die / and movies starring pop queens'
p1865
g1003
tp1866
a(S"director tom dey demonstrated a knack for mixing action and idiosyncratic humor in his charming 2000 debut shanghai noon , but showtime's uninspired send-up of tv cop show cliches mostly leaves him shooting blanks . "
p1867
g1003
tp1868
a(S'banal and predictable . '
p1869
g1003
tp1870
a(S"'yes , that's right : it's forrest gump , angel of death . '"
p1871
g1003
tp1872
a(S'a wildly erratic drama with sequences that make you wince in embarrassment and others , thanks to the actors , that are quite touching . '
p1873
g1003
tp1874
a(S"while easier to sit through than most of jaglom's self-conscious and gratingly irritating films , it's still tainted by cliches , painful improbability and murky points . "
p1875
g1003
tp1876
a(S'about as enjoyable , i would imagine , as searching for a quarter in a giant pile of elephant feces . . . positively dreadful . '
p1877
g1003
tp1878
a(S'a generic international version of a typical american horror film . '
p1879
g1003
tp1880
a(S" . . . while certainly clever in spots , this too-long , spoofy update of shakespeare's macbeth doesn't sustain a high enough level of invention . "
p1881
g1003
tp1882
a(S'crikey indeed . '
p1883
g1003
tp1884
a(S"lucas has in fact come closer than anyone could desire to the cheap , graceless , hackneyed sci-fi serials of the '30s and '40s . "
p1885
g1003
tp1886
a(S"there's a lot of good material here , but there's also a lot of redundancy and unsuccessful crudeness accompanying it . "
p1887
g1003
tp1888
a(S"absurdities and clich\xe9s accumulate like lint in a fat man's navel . "
p1889
g1003
tp1890
a(S"if you think it's a riot to see rob schneider in a young woman's clothes , then you'll enjoy the hot chick . "
p1891
g1003
tp1892
a(S"the sheer dumbness of the plot ( other than its one good idea ) and the movie's inescapable air of sleaziness get you down . "
p1893
g1003
tp1894
a(S'strangely comes off as a kingdom more mild than wild . '
p1895
g1003
tp1896
a(S"the next big thing's not-so-big ( and not-so-hot ) directorial debut . "
p1897
g1003
tp1898
a(S'yet another iteration of what\'s become one of the movies\' creepiest conventions , in which the developmentally disabled are portrayed with almost supernatural powers to humble , teach and ultimately redeem their mentally " superior " friends , family . . . '
p1899
g1003
tp1900
a(S"bond-inspired ? certainly . likely to have decades of life as a classic movie franchise ? let's hope not . "
p1901
g1003
tp1902
a(S'this flat run at a hip-hop tootsie is so poorly paced you could fit all of pootie tang in between its punchlines . '
p1903
g1003
tp1904
a(S"davis has energy , but she doesn't bother to make her heroine's book sound convincing , the gender-war ideas original , or the comic scenes fly . "
p1905
g1003
tp1906
a(S'surprisingly , considering that baird is a former film editor , the movie is rather choppy . '
p1907
g1003
tp1908
a(S"none of this is very original , and it isn't particularly funny . "
p1909
g1003
tp1910
a(S' . . . a bland murder-on-campus yawner . '
p1911
g1003
tp1912
a(S'a humorless journey into a philosophical void . '
p1913
g1003
tp1914
a(S'these two are generating about as much chemistry as an iraqi factory poised to receive a un inspector . '
p1915
g1003
tp1916
a(S"respons\xe1vel direto pelo fracasso 'art\xedstico' de doce lar , o roteirista c . jay cox n\xe3o consegue sequer aproveitar os pouqu\xedssimos momentos em que escapa da mediocridade . "
p1917
g1003
tp1918
a(S'just as the lousy tarantino imitations have subsided , here comes the first lousy guy ritchie imitation . '
p1919
g1003
tp1920
a(S'a passable romantic comedy , in need of another couple of passes through the word processor . '
p1921
g1003
tp1922
a(S"the movie attempts to mine laughs from a genre -- the gangster/crime comedy -- that wore out its welcome with audiences several years ago , and its cutesy reliance on movie-specific cliches isn't exactly endearing . "
p1923
g1003
tp1924
a(S"shows holmes has the screen presence to become a major-league leading lady , ( but ) the movie itself is an underachiever , a psychological mystery that takes its sweet time building to a climax that's scarcely a surprise by the time it arrives . "
p1925
g1003
tp1926
a(S'in the book-on-tape market , the film of " the kid stays in the picture " would be an abridged edition'
p1927
g1003
tp1928
a(S'ultimately . . . the movie is too heady for children , and too preachy for adults . '
p1929
g1003
tp1930
a(S"it's just a little too self-satisfied . "
p1931
g1003
tp1932
a(S'clever but not especially compelling . '
p1933
g1003
tp1934
a(S'mckay seems embarrassed by his own invention and tries to rush through the intermediary passages , apparently hoping that the audience will not notice the glaring triteness of the plot device he has put in service . '
p1935
g1003
tp1936
a(S'a piece of mildly entertaining , inoffensive fluff that drifts aimlessly for 90 minutes before lodging in the cracks of that ever-growing category : unembarrassing but unmemorable . '
p1937
g1003
tp1938
a(S'labute was more fun when his characters were torturing each other psychologically and talking about their genitals in public . '
p1939
g1003
tp1940
a(S'the movie weighs no more than a glass of flat champagne . '
p1941
g1003
tp1942
a(S'brisk hack job . '
p1943
g1003
tp1944
a(S'the problem with antwone fisher is that it has a screenplay written by antwone fisher based on the book by antwone fisher . '
p1945
g1003
tp1946
a(S"alarms for duvall's throbbing sincerity and his elderly propensity for patting people while he talks . "
p1947
g1003
tp1948
a(S'\x85the maudlin way its story unfolds suggests a director fighting against the urge to sensationalize his material . '
p1949
g1003
tp1950
a(S"what little grace [rifkin's] tale of precarious skid-row dignity achieves is pushed into the margins by predictable plotting and tiresome histrionics . "
p1951
g1003
tp1952
a(S'tries to work in the same vein as the brilliance of animal house but instead comes closer to the failure of the third revenge of the nerds sequel . '
p1953
g1003
tp1954
a(S'unfortunately , kapur modernizes a . e . w . mason\'s story to suit the sensibilities of a young american , a decision that plucks " the four feathers " bare . '
p1955
g1003
tp1956
a(S' . . . what a banal bore the preachy circuit turns out to be'
p1957
g1003
tp1958
a(S"falsehoods pile up , undermining the movie's reality and stifling its creator's comic voice . "
p1959
g1003
tp1960
a(S'a mechanical action-comedy whose seeming purpose is to market the charismatic jackie chan to even younger audiences . '
p1961
g1003
tp1962
a(S'one of the most incoherent features in recent memory . '
p1963
g1003
tp1964
a(S'low rent from frame one . '
p1965
g1003
tp1966
a(S'eight legged freaks ? no big hairy deal . '
p1967
g1003
tp1968
a(S"the issues are presented in such a lousy way , complete with some of the year's ( unintentionally ) funniest moments , that it's impossible to care . "
p1969
g1003
tp1970
a(S'laggard drama wending its way to an uninspired philosophical epiphany . '
p1971
g1003
tp1972
a(S'the respective charms of sandra bullock and hugh grant have worn threadbare . '
p1973
g1003
tp1974
a(S"'this movie sucks . '"
p1975
g1003
tp1976
a(S'none of this so-called satire has any sting to it , as if woody is afraid of biting the hand that has finally , to some extent , warmed up to him . '
p1977
g1003
tp1978
a(S' . . . bibbidy-bobbidi-bland . '
p1979
g1003
tp1980
a(S"a few nonbelievers may rethink their attitudes when they see the joy the characters take in this creed , but skeptics aren't likely to enter the theater . "
p1981
g1003
tp1982
a(S"bad in such a bizarre way that it's almost worth seeing , if only to witness the crazy confluence of purpose and taste . "
p1983
g1003
tp1984
a(S"there's more repetition than creativity throughout the movie . "
p1985
g1003
tp1986
a(S"hugh grant's act is so consuming that sometimes it's difficult to tell who the other actors in the movie are . "
p1987
g1003
tp1988
a(S"although the sequel has all the outward elements of the original , the first film's lovely flakiness is gone , replaced by the forced funniness found in the dullest kiddie flicks . "
p1989
g1003
tp1990
a(S"i've had more interesting -- and , dare i say , thematically complex -- bowel movements than this long-on-the-shelf , point-and-shoot exercise in gimmicky crime drama . "
p1991
g1003
tp1992
a(S'what we get . . . is caddyshack crossed with the loyal order of raccoons . '
p1993
g1003
tp1994
a(S'the jokes are flat , and the action looks fake . '
p1995
g1003
tp1996
a(S"when a movie asks you to feel sorry for mick jagger's sex life , it already has one strike against it . "
p1997
g1003
tp1998
a(S"there are now two signs that m . night shyamalan's debut feature sucked up all he has to give to the mystic genres of cinema : unbreakable and signs . "
p1999
g1003
tp2000
a(S' . . . hokey art house pretension . '
p2001
g1003
tp2002
a.