ccopy_reg
_reconstructor
p0
(cnltk.classify.scikitlearn
SklearnClassifier
p1
c__builtin__
object
p2
Ntp3
Rp4
(dp5
S'_clf'
p6
g0
(csklearn.svm.classes
LinearSVC
p7
g2
Ntp8
Rp9
(dp10
S'loss'
p11
S'squared_hinge'
p12
sS'C'
p13
F1.0
sS'max_iter'
p14
I1000
sS'verbose'
p15
I0
sS'fit_intercept'
p16
I01
sS'classes_'
p17
cnumpy.core.multiarray
_reconstruct
p18
(cnumpy
ndarray
p19
(I0
tp20
S'b'
p21
tp22
Rp23
(I1
(I2
tp24
cnumpy
dtype
p25
(S'i8'
p26
I0
I1
tp27
Rp28
(I3
S'<'
p29
NNNI-1
I-1
I0
tp30
bI00
S'\x00\x00\x00\x00\x00\x00\x00\x00\x01\x00\x00\x00\x00\x00\x00\x00'
p31
tp32
bsS'class_weight'
p33
NsS'n_iter_'
p34
cnumpy.core.multiarray
scalar
p35
(g25
(S'i4'
p36
I0
I1
tp37
Rp38
(I3
S'<'
p39
NNNI-1
I-1
I0
tp40
bS'$\x00\x00\x00'
p41
tp42
Rp43
sS'penalty'
p44
S'l2'
p45
sS'multi_class'
p46
S'ovr'
p47
sS'random_state'
p48
NsS'_sklearn_version'
p49
S'0.18'
p50
sS'dual'
p51
I01
sS'tol'
p52
F0.0001
sS'coef_'
p53
g18
(g19
(I0
tp54
g21
tp55
Rp56
(I1
(I1
I113
tp57
g25
(S'f8'
p58
I0
I1
tp59
Rp60
(I3
S'<'
p61
NNNI-1
I-1
I0
tp62
bI01
S"\x00\x00\x00\x00\x00\x00\x00\x00\x00\x00\x00\x00\x00\x00\x00\x00\x00\x00\x00\x00\x00\x00\x00\x00$8v,~n\xe5\xbf\x00\x00\x00\x00\x00\x00\x00\x00\x10H\xc9\xc7|n\xe5\xbf\x00\x00\x00\x00\x00\x00\x00\x00\x00\x00\x00\x00\x00\x00\x00\x00\x00\x00\x00\x00\x00\x00\x00\x00\x00\x00\x00\x00\x00\x00\x00\x00\x00\x00\x00\x00\x00\x00\x00\x00\xfa\xee\xee.0<\xe5?\x00\x00\x00\x00\x00\x00\x00\x00\x00\x00\x00\x00\x00\x00\x00\x00\x00\x00\x00\x00\x00\x00\x00\x00,/\xe9\xb9'<\xe5?\xbd8\xbces{\xe9?\x00\x00\x00\x00\x00\x00\x00\x00\x00\x00\x00\x00\x00\x00\x00\x00\x00\x00\x00\x00\x00\x00\x00\x00\x00\x00\x00\x00\x00\x00\x00\x00\x00\x00\x00\x00\x00\x00\x00\x00\x00\x00\x00\x00\x00\x00\x00\x00\x00\x00\x00\x00\x00\x00\x00\x00\xba\xd3\x01s\x85n\xe5\xbf\x00\x00\x00\x00\x00\x00\x00\x00\x00\x00\x00\x00\x00\x00\x00\x00%lZB)<\xe5?\x00\x00\x00\x00\x00\x00\x00\x00\x00\x00\x00\x00\x00\x00\x00\x00\n\xeboo,<\xe5?\x00\x00\x00\x00\x00\x00\x00\x00\x00\x00\x00\x00\x00\x00\x00\x00\x00\x00\x00\x00\x00\x00\x00\x00\x00\x00\x00\x00\x00\x00\x00\x00\x00\x00\x00\x00\x00\x00\x00\x00\x00\x00\x00\x00\x00\x00\x00\x00\x00\x00\x00\x00\x00\x00\x00\x00\x00\x00\x00\x00\x00\x00\x00\x00\x00\x00\x00\x00\x00\x00\x00\x00\x00\x00\x00\x00\x00\x00\x00\x00\x00\x00\x00\x00\x00\x00\x00\x00\x00\x00\x00\x00\x00\x00\x00\x00\x00\x00\x00\x00\x00\x00\x00\x00\x00\x00\x00\x00\x00\x00\x00\x00\x00\x00\x00\x00\x00\x00\x00\x00\x00\x00\x00\x00\x00\x00\x00\x00\x00\x00\x00\x00\x00\x00\x00\x00\x00\x00\x00\x00\x00\x00\x00\x00\x00\x00\x00\x00\x00\x00\x00\x00\x00\x00\x00\x00\x00\x00\x00\x00\x00\x00\x00\x00\x00\x00\x00\x00\x00\x00\x00\x00\x00\x00\x00\x00\x00\x00\x00\x00\x00\x00\x00\x00\x00\x00\x00\x00\x00\x00\x00\x00\x00\x00\x00\x00\x00\x00\x00\x00\x00\x00\x00\x00\x00\x00\x00\x00\x00\x00\x00\x00\x00\x00\x00\x00\x00\x00\x00\x00\x00\x00\x00\x00\x00\x00\x00\x00\x00\x00\x00\x00\x00\x00\x00\x00\x00\x00\x00\x00\x00\x00\x00\x00\x00\x00\x00\x00\x00\x00\x00\x00\x00\x00\x00\x00\x00\x00\x00\x00\x00\x00\x00\x00\x00\x00\x00\x00\x00\x00\x00\x00\x00\x00\x00\x00\x00\x00\x00\x00\x00\x00\x00\x00\x00\x00\x00\x00\x00\x00\x00\x00\x00\x00\x00\x00\x00\x00\x00\x00\x00\x00\x00\x00\x00\x00\x00\x00\x00\x00\x00\x00\x00\x00\x00\x00\x00\x00\x00\x00\x00\x00\x00\x00\x00\x00\x00\x00\x00\x00\x00\x00\x00\x00\x00\x00\x00\x00\x00\x00\x00\x00\x00\x00\x00\x00\x00\x00\x00\x00\x00\x00\x00\x00\x00\x00\x00\x00\x00\x00\x00\x00\x00\x00\x00\x00\x00\x00\x00\x00\x00\x00\x00\x00\x00\x00\x00\x00\x00\x00\x00\x00\x00\x00\x00\x00\x00\x00\x00\x00\x00\x00\x00\x00\x00\x00\x00\x00\x00\x00\x00\x00\x00\x00\x00\x00\x00\x00\x00\x00\x00\x00\x00\x00\x00\x00\x00\x00\x00\x00\x00\x00\x00\x00\x00\x00\x00\x00\x00\x00\x00\x00\x00\x00\x00\x00\x00\x00\x00\x00\x00\x00\x00\x00\x00\x00\x00\x00\x00\x00\x00\x00\x00\x00\x00\x00\x00\x00\x00\x00\x00\x00\x00\x00\x00\x00\x00\x00\x00\x00\x00\x00\x00\x00\x00\x00\x00\x00\x00\x00\x00\x00\x00\x00\x00\x00\x00\x00\x00\x00\x00\x00\x00\x00\x00\x00\x00\x00\x00\x00\x00\x00\x00\x00\x00\x00\x00\x00\x00\x00\x00\x00\x00\x00\x00\x00\x00\x00\x00\x00\x00\x00\x00\x00\x00\x00\x00\x00\x00\x00\x00\x00\x00\x00\x00\x00\x00\x00\x00\x00\x00\x00\x00\x00\x00\x00\x00\x00\x00\x00\x00\x00\x00\x00\x00\x00\x00\x00\x00\x00\x00\x00\x00\x00\x00\x00\x00\x00\x00\x00\x00\x00\x00\x00\x00\x00\x00\x00\x00\x00\x00\x00\x00\x00\x00\x00\x00\x00\x00\x00\x00\x00\x00\x00\x00\x00\x00\x00\x00\x00\x00\x00\x00\x00\x00\x00\x00\x00\x00\x00\x00\x00\x00\x00\x00\x00\x00\x00\x00\x00\x00\x00\x00\x00\x00\x00\x00\x00\x00\x00\x00\x00\x00\x00\x00\x00\x00\x00\x00\x00\x00\x00\x00\x00\x00\x00\x00\x00\x00\x00\x00\x00\x00\x00\x00\x00"
p63
tp64
bsS'intercept_'
p65
g18
(g19
(I0
tp66
g21
tp67
Rp68
(I1
(I1
tp69
g60
I00
S'\x80|9\xbe\x9b\xdfr?'
p70
tp71
bsS'intercept_scaling'
p72
I1
sbsS'_encoder'
p73
g0
(csklearn.preprocessing.label
LabelEncoder
p74
g2
Ntp75
Rp76
(dp77
g17
g18
(g19
(I0
tp78
g21
tp79
Rp80
(I1
(I2
tp81
g25
(S'S3'
p82
I0
I1
tp83
Rp84
(I3
S'|'
p85
NNNI3
I1
I0
tp86
bI00
S'negpos'
p87
tp88
bsg49
g50
sbsS'_vectorizer'
p89
g0
(csklearn.feature_extraction.dict_vectorizer
DictVectorizer
p90
g2
Ntp91
Rp92
(dp93
S'sort'
p94
I01
sS'feature_names_'
p95
(lp96
S'+do+not+worry+it+will+may+be+fix+in+next+update..+i+got+antutu+score+above+128000+max..+performance+is+main+highlight+of+this+phone+truly+beast..+it+does+not+heat+on+maximum+performance+keep+in+mind+friends..+dash+charging+-what+a+great+idea+of+oneplus+team+hats+off..'
p97
aS'+it+is+just+at+a+15-20+degrees+of+angle.+lazy+i+m.+don'
p98
aS'+which+has+a+great+higher-res+display+and+plenty+of+high-end+configuration+options.but+that+doesn'
p99
aS'..unacceptable'
p100
aS'.but+the+adp+and+the+way+to+activate+adp+is+totally+ridiculous'
p101
aS'.hope+for+the+best'
p102
aS'.packing+was+great+as+usual'
p103
aS'21+many+others+reasons+-+best+fingerprint+scanner'
p104
aS'21+never+needed+to.+it+sleeps+the+instant+you+put+down+the+lid+and+wakes+the+instant+you+open+the+lid+-+zero+lag+so+far'
p105
aS'21even+if+i+buy+a+license+of+windows+10+and+install+it+via+boot-camp+'
p106
aS'21finally+-+it+sips+battery'
p107
aS'22-+for+a+full-time+gamer'
p108
aS'23never+settle..u+have+to+compromise+with+this+only+thing..+camera+is+good+but+not+good+in+low+light..+also+its+takes+more+time+to+lock+object+because+it+lacks+laser+autofocus..+but+overall+ok+last+but+not+list+is+after+one+month+of+usage+i+saw+first+time+my+phone+was+lagged+in+multitasking-asphalt+8+was+reopened+in+swtching+between+only+4-5+apps'
p109
aS'25+in+15-20mins.+display+is+brilliant+and+the+oneplus+experience+continues+to+evolve+for+the+better'
p110
aS'25+in+just+30+minutes.the+camera+on+the+oneplus+3+is+a+huge+improvement+over+the+previous+generation.+the+16-megapixel+sony+imx+298+sensor+primary+camera+delivers+a+good+picture+quality+and+features+optical+image+stabilisation'
p111
aS'25+to+50-55'
p112
aS'25-100'
p113
aS'25.+the+only+back+drop+would+be+a+few+oxygen+bugs+and+its+in-expandable+storage+but+the+os+on+the+whole+is+a+good+one+and+the+op3+has+otg+support+which+covers+the+storage+problem.+hope+this+review+helped+-dd+'
p114
aS'26+now+oneplus+3+also+for+2+months+but+overall+in-hand+feel+'
p115
aS'26+reflection+of+graphite+black+version.first+day+rooted+this+phone+after+updating+the+phone+with+latest+update.battery+life+is+decent+about+4-5+hours+of+screen+on+time+without+any+sim+card+right+now.fingerprint+sensor+is+fastest+on+android+phones+'
p116
aS'27+inch+display+which+can+give+full+hd+display.+the+16+mp+back+cam+gives+crystal+clear+images+and+it+also+has+a+manual+mode+for+photographers+to+get+that+just+right+candid+pic.+the+front+8+mp+is+a+classy+one+for+selfies+and+can+give+u+pics+at+a+smile.+the+3000mhz+battery+is+made+to+last+long+but+the+load+on+it+due+to+the+processor+and+ram+make+it+last+upto+14-15+hours+but+its+dash+charge+omg+just+give+it+15+mins+ur+battery+is+up+to+35'
p117
aS'27+on+tuesday+evening+traveling+over+60+kms+to-fro+in+mumbai+after+diwali+weekend+which+became+forced+leave+for+me.+amazon+representative+collected+phone+on+3rd+november+in+morning'
p118
aS'27.+i+threw+off+my+4-5+yo+sony+xperia.+kidding+xd+i+didn'
p119
aS'27ll+like+to+say+oneplus+3+is+just+a+great+buy+i+need+not+to+spend+50-60+k+for+a+double.about+phone+now+the+build+of+phone+is+great+and+looks+premium.there+is+a+tempered+guard+in+mobile+.+the+camera+is+good+i+won'
p120
aS'27re+even+water-resistant'
p121
aS'27re+good+to+go+for+another+4-5+hours.+the+speaker+is+very+nice+and+loud+and+audio+output+is+very+good.+over+all'
p122
aS'27re+still+looking+at+no-compromise+all-day+battery+life.if+not+for+the+continued+battery-life+dominance+and+the+relatively+low+starting+price'
p123
aS'27s+a+one-time+investment'
p124
aS'27s+advanced+operating+system-+os+x+ei+captain+even+more+powerful+and+easier+to+use.it+comes+with+an+amazing+collection+of+apps.control+macbook+air+with+amazing+gesture.two-finger+swipe+to+navigate.three+fingers+swipe.mission+control-+swipe+up.pinch+to+zoom.superb+browsing+experience+ever.it+only+comes+with+12+hours+of+battery+life+in+'
p125
aS'27s+dash+charge+technology+saves+your+time+in+charging..+the+best+part+of+the+phone+is+its+interface+and+working+-+simple'
p126
aS'27s+like+you+kept+it+for+10-20+mins+and+then+boom+'
p127
aS'27s+looking+for+changing+your+old+phone+-+op3+can+most+definitely+be+included+in+your+shortlist'
p128
aS'27t+come+our+very+well+as+the+shutter+speed+is+not+very+fast.video+capture+quality+is+amazing.+finger+print+sensor+is+lightning+fast.+have+compared+its+response+speed+with+other+mid-range+phones+like+redmi+note+3'
p129
aS'27t+notice+the+difference+in+day+to+day+use+unless+you+are+a+gamer+and+watch+movies+on+your+phone+a+lot.one+bug+i+face+is+the+switching+between+wi-fi+and+cellular+data.+if+both+are+turned+off+and+you+try+to+just+turn+on+cellular+data'
p130
aS'27t+panic+as+we+have+a+solution.+just+need+to+download+a+driver+for+the+wifi+using+the+ethernet+cable+and+from+then+your+wi-fi+will+work.+check+out+you+tube+if+you+require+a+real+time+assistance.+the+sound+quality+is+good.+trackpad+has+a+decent+response.+camera+quality+is+better+when+compare+to+the+previous+version+of+dell+which+i+owned+'
p131
aS'28a+model+with+an+11.6-inch+screen+and+otherwise+very+similar+specs+is+available+for+even+less.'
p132
aS'28for+many+reasons-+none+cos+i+hate+ios'
p133
aS'28i+wont+-+cause+i+am+not+wedded+to+windows+for+my+apps'
p134
aS'28sometime+3-4+gb+each+week'
p135
aS'29+.consider+this+-+this+is+better+built'
p136
aS'29+easily+online+-+nor+in+stores.+basically+nothing+was+available+that+could+offer+me+these+specs+and+portability+at+this+price+point'
p137
aS'29.and+my+absolute+favorite+thing+-+i+have+only+put+this+machine+to+sleep+'
p138
aS'29.best+-+camera+is+awesome'
p139
aS'29.so+that+might+make+your+captured+video+anti-shake+one+and+also+would+be+better+while+viewing+it.it+has+a+very+fabulous+benchmark+score+of+138000+on+an+average.that+might+easily+give+you+an+idea+of+how+good+does+it+perform+in+day+to+day+life+scenario'
p140
aS'29.so+that+might+make+your+captured+video+anti-shake+one+and+also+would+be+better+while+viewing+it.it+has+a+very+fabulous+benchmark+score+of+138000+on+an+averagethat+might+easily+give+you+an+idea+of+how+good+does+it+perform+in+day+to+day+life+scenario'
p141
aS'2b.+apple+boasts+that+the+new+dual-lens+camera+is+the+best+on+the+market'
p142
aS'2c+and+all+your+skepticism+is+out+of+the+window.-the+build+quality+exudes+of+a+premium+finish+and+feel.-osx+is+as+powerful+as+it+is+secure.+and+combine+that+with+the+hardware+under+the+hood'
p143
aS'2c+and+the+low+light+performance+of+the+camera+could+be+improved+a+little.+but+this+is+nothing+serious+since+the+battery+does+last+for+the+whole+day+and+camera+does+perform+really+well+in+most+situations.also+you+will+have+to+buy+a+screen+guard+or+a+tempered+glass+anyway+since+the+one+pre-installed+on+the+phone+doesn'
p144
aS'2c+and+there+were+some+file+format+recognition+issues+which+prevented+us+from+running+some+video+and+audio+files+on+the+phone.+pictures+taken+in+low-light+weren'
p145
aS'2c+as+it+is+already+a+two-year-old+soc+by+now.+you'
p146
aS'2c+as+well+as+the+non-apple+competition.+even+if+more+challenging+tasks+or+heavy+online+streaming+cut+that+number+by+40+percent+or+so'
p147
aS'2c+be+sure+not+to+lose+that+dongle+before+then.+dual-lens+camera+is+only+available+in+7'
p148
aS'2c+but+also+there+at+your+disposal.-havent+encountered+a+single+bug+so+far.+literally+none-streamline'
p149
aS'2c+but+those+changes+have+felt+very+minor.+especially+so+when+compared+to+the+groundbreaking+new-for-2015+12-inch+macbook+'
p150
aS'2c+but+you+still+can+manage+to+play+games+released+in+2013+-+2014.+battery+backup+is+good'
p151
aS'2c+carry+the+charge+once+-+lasts+a+week+type+of+phone.+if+your+train+journey+is+40+hours+then+go+by+flight'
p152
aS'2c+colors+are+vibrant+and+accurate.i+recommend+u+to+buy+this+phone+if+u+are+looking+for+a+phone+in+range+of+25-30k.another+options+for+u+in+this+range+are+mi5+or+le+max2+but+since+only+white+variant+of+mi5+is+available+in+india+and+the+processor+is+also+underclocked+'
p153
aS'2c+else+the+phone+may+power+off.keyboard+is+great.+review+typed+on+the+swiftkey+keyboard+that+comes+pre-installed'
p154
aS'2c+feel+free+to+play+with+the+windows+toys..this+is+not+a+cheaply+plastic+made+windows+commodity+that+starts+falling+apart+within+a+year+or+two+of+heavy+usage.+the+macbook+pro+is+built+to+last+at+least+6+years.+and+as+a+long+time+user+i+stand+by+that.-the+apple+post+purchase+support+is+unrivalled.+be+it+online+or+in+store+support.+or+even+the+ota+updates+for+even+a+5+year+old+machine.-+the+display+is+just+to+die+for.+one+look+and+you+will+be+in+awe+of+the+pro+retina+technology.+colours+aren'
p155
aS'2c+gaming+and+camera+experience.+totally+in+love+with+my+oneplus3+soft+gold.highest+remark-ability+is+the+performance+speed+and+the+charging+speed'
p156
aS'2c+htc+and+lg.+the+android+marshmallow+powered+device+runs+oxygen+os+bloatware+by+oneplus+that+is+otherwise+very+non-intruding+to+the+android+phone+experience.+some+interesting+customisation+options+include+a+'
p157
aS'2c+i+just+copied+a+little+over+5gb+of+data+from+one+part+of+my+computer+to+another+in+less+than+10seconds.optimized+os+and+long+battery+life+of+upto+8-10+hours.aesthetic+appeal+of+apple+'
p158
aS'2c+i+use+social+media+a+lot.+i+used+to+get+4.5+-+5+hours+of+screen+on+time'
p159
aS'2c+if+you+really+need+it+-+i+am+all+for+google+docs'
p160
aS'2c+is+definitely+not+honest.+i+have+downloaded+it+and+works+like+breeze.+update+was+heavy+though+-4.88+gb.disk+space+is+less+but+you+know+it+when+you+buy+it+right'
p161
aS'2c+it+would+be+easy+to+ease+the+macbook+air+aside+and+suggest+the+pro+or+12-inch+macbook+instead.+instead'
p162
aS'2c+laptop+hardware+is+tampered+in-+transit'
p163
aS'2c+lets+spend+some+extra+and+be+happy+lag+free+for+a+couple+of+years-+experienced+a+little+lag+and+heat+there+too'
p164
aS'2c+mac+os+x+works+like+a+charm+-+i+have+tried+it+for+the+first+time'
p165
aS'2c+multi-+tab+browsing'
p166
aS'2c+multi-tasking+is+a+whole+new+level.to+anyone+moaning+'
p167
aS'2c+nobody+is+perfect+in+this+world+even+those+expensive+useless+i-phones'
p168
aS'2c+nothing+else+exists+that+does+what+it+does+currently+-+allow+me+to+elaborate'
p169
aS'2c+nothing+to+complain+about+as+far+as+quality+of+the+product+is+concerned.+apple+is+definitely+king+of+the+hill+when+it+comes+to+laptops+-+i+love+windows+still+for+certain+tasks+and+this+is+my+first+affair+with+apple+in+a+long+time+'
p170
aS'2c+now+the+device+is+not+switching+on+in+a+single+try.+we+have+to+press+the+power+button+a+couple+of+times+-+deep+press+one+time'
p171
aS'2c+one+can+see+the+level+of+black+and+contrast+in+images.the+device+is+pretty+light+for+its+size+and+also+a+looker+as+you+can+see+in+the+attached+pics.+the+bundled+dash-charger+does+what+it+says+and+charges+the+thing+pretty+quickly+so+you+are+not+left+in+a+low+battery+situation+all+the+time.+all+in+all+this+is+money+well+spent+and+deserves+more+than+the+price+it+asks+for'
p172
aS'2c+phase+detection+autofocus+and+raw+image+format+support.+you+can+also+shoot+4k+videos+and+slow+motion+at+120+fps.+this+is+pretty+much+the+standard+on+flagship+phones+these+days.the+image+quality+is+better+than+what+you+might+find+on+the+motorola+moto+x+and+moto+x+style+which+is+in+the+same+price+bracket+as+the+oneplus+3.+for+selfie+lovers+the+8-megapixel+sensor+with+1.4-micron+pixels+does+the+job+with+ease+and+it+can+also+shoot+videos+at+1080p+'
p173
aS'2c+photos+and+more.+built-in+dvd+drive'
p174
aS'2c+s-pen+and+touch+viz+exp.+i+feel+the+front+facing+cam+is+better+on+this+than+the+one+on+note+5.+rear+cam+is+debatable.+battery+is+superb.+totally+happy.+dash+charging+is+awesome.+solid+bulid.+looks+great+but+they+should+give+more+colours+like+black+also.+it+would+crazy+in+black+full+metal+finish'
p175
aS'2c+sans+clutter.-+combine+this+laptop+with+an+iphone+or+an+ipad+and+a+whole+new+dynamic+of+information+sharing+amongst+the+devices+is+unlocked.this+laptop+is+not+just+for+a+professional+but+any+regular+joe+or+a+student+who+wants+a+powerful+yet+seamless+multi+tasking+experience'
p176
aS'2c+somebody+else+will+find+it+useful.the+default+screen-guard+is+a+little+smaller+in+the+perimeter.+but+has+not+developed+any+bubbles+yet.battery+life+not+that+satisfactory.+sometimes+need+to+charge+it+twice+a+day.+this+without+heavy+usage.+half+an+hour+8'
p177
aS'2c+specifically.+read+this+review+once+and+i+bet+you+would+end+up+with+a+deep+urge+to+own+this+beast.for+the+note+-+i+am+a+computer+science+engineering+student'
p178
aS'2c+super-fast+processor'
p179
aS'2c+surely+you+can+get+a+better+configuration+at+this+range+on+other+windows-based+system'
p180
aS'2c+thanks+to+a+still-slim+design'
p181
aS'2c+thanks+to+all+those+negative+comments.+but+i+will+definitely+recommend+that+you+buy+this+if+you+want+a+cell+phone+which+will+not+bug+you+with+low+efficiency+bugs.+oneplus+has+done+a+great+job+with+this+beauty.+battery+life+and+charging+are+very+good.+i+only+get+bugged+by+the+auto-brightness+feature+but+its+nothing+which+can'
p182
aS'2c+the+display+is+excellent+and+it+comes+with+a+pre-applied+scratch+guard.+the+finger+print+reader+is+very+quick+and+accurate.+the+camera+is+good+and+performs+well+in+low+light+conditions.+charging+is+quite+fast+as+advertised+with+little+heating+of+the+device.+battery+management+is+good+and+it+lasts+for+at+least+a+day+with+normal+use.+some+might+not+like+the+fact+that+the+internal+memory+is+non-expandable+but+56+gb+of+available+storage+should+be+more+than+enough.+overall'
p183
aS'2c+the+phone+lasts+easily+a+day+and+a+half.+the+phone+comes+with+fast+charging+too+on+the+usb+type-c+and+can+charge+from+0-60'
p184
aS'2c+though+i+felt+it+could+have+been+increased+a+bit+in+the+design.battery+runs+for+about+2+days+for+my+usage+with+optimum+use+of+wi-fi+and+4g+when+needed'
p185
aS'2c+to+themselves+as+well+as+your+wrists.-invisible+elements+like+the+forced+touch+trackpad+or+the+spectacular+colour+scheme+management+of+the+pro+retina+display+seem+to+become+second+nature.+and+it+is+when+you+use+a+simple+windows+laptop+that+you+realise+the+lack+of+the+afore+mentioned+features.-+video+editing'
p186
aS'2c+watch+movies+and+load+software+with+an+optional+built-in+dvd+drive.+easily+store+high+volumes+of+data+on+your+dvds+for+file+archiving'
p187
aS'2c+we+test+inspiron+laptops+for+survival+in+harsh+short-term+heat+conditions+of+up+to+65'
p188
aS'2c+what+charging+speeds.+the+dash+charge+technology+by+oneplus+makes+it+astonishingly+fast+charging.+20-100'
p189
aS'2c+will+always+work+smoothly+and+still+stay+within+your+price+range+for+the+set+of+specs+it+has.+with+6gb+of+ram+and+snapdragon+820+its+going+to+last+well+into+the+future.+oxygenos+is+one+of+the+better+roms+as+far+as+keeping+a+balance+goes+between+stock+android+and+any+added+sophistication.+the+camera+is+also+pretty+cool+and+has+got+features+like+time+lapse+and+slow-motion+video.+the+amoled+screen+is+a+delight+to+look+at'
p190
aS'2c+you+can+take+on+your+day-to-day+tasks+with+the+responsive+power+of+4th+gen+intel+core+tm+processors.+an+available+2gb2+discrete+graphics+option+allows+you+to+complete+more+intensive+tasks+without+sacrificing+performance.+more+ways+to+enjoy+hd+clarity'
p191
aS'2c000.the+device+has+4g+connectivity+with+support+for+both+fdd-band+3+and+tdd-band+40+that+are+widely+used+in+india.+you+also+get+wifi+a'
p192
aS'2cthis+configuration+is+not+available+at+this+price.+warranty+also+got+registered+at+website.+installing+win-7+and+then+updated+to+10+is+working+really+nice.+drivers+were+updated+automatically+on+updating+with+win-10.+only+problem+with+its+weight+else+is+absolutely+fine.+looks+bulky+and+heavy'
p193
aS'2f-'
p194
aS'2fa+13.3-inch+laptop+is+amazing+product+its+light+and+worth+the+money.i+got+it+for+62k+and+the+seller+was+gadge+tree+which+gave+me+a+bill+that+matches+the+serial+no+on+the+product+itself.the+only+issue+is+the+year+make+of+the+product+i+got+the+early+2015+make+which+is+a+bit+sad+as+we+are+already+in+the+late+2016.so+an+early+2016+make+would+have+been+nice'
p195
aS'2fvideo+port.+the+built-in+flash+storage'
p196
aS'2fvideos+have+good+blacks+and+seem+to+just+pop.-the+whole+osx+interface+is+very+subtle+and+always+seems+to+take+a+backseat'
p197
aS'3a+my+previous+screen+had+a+semi-hd+resolution+so+this+transition+has+brought+to+my+notice+some+never+before+changes+in+display.touchpad'
p198
aS'3a+venture+away+from+the+power+outlet+with+confidence.+with+long-lasting+battery+life'
p199
aS'camera+performance+of+this+device+is+also+very+good.+it+has+16+mp+primary+which+has+a+pretty+good+advanced+options+to+capture+pics+and+videos.+as+compared+to+xiaomi+mi+5+the+picture+quality+is+good+but+we+can'
p200
aS'it+comes+with+a+ubuntu+14.04+version.+initially+you+will+not+be+able+to+connect+to+wi-fi.+don'
p201
aS'its+not+even+2+month+now+and+the+phone+is+not+working.first+voice+quality+was+bad+from+the+beginning+but+i+ignored+for+few+days.+later+if+i+turned+on+the+loudspeaker+the+other+side+can'
p202
aS'sure'
p203
aS'this+cell+phone+display+not+working+please+change+the+same+cell+phone+i+can'
p204
aS'this+is+a+phone+you+can'
p205
aS'u+get+a+whopping+6+gb+ram+'
p206
aS'words+can'
p207
aS'worst+laptop+that+i+had+ever+seen'
p208
aS'worst+laptop.+sound+quality+and+touchpad+are+pathetic'
p209
asS'dtype'
p210
c__builtin__
float
p211
sS'vocabulary_'
p212
(dp213
g108
I11
sg111
I14
sg138
I41
sg154
I57
sg105
I8
sg201
I104
sg125
I28
sg135
I38
sg196
I99
sg182
I85
sg156
I59
sg146
I49
sg107
I10
sg109
I12
sg195
I98
sg188
I91
sg205
I108
sg132
I35
sg178
I81
sg169
I72
sg204
I107
sg191
I94
sg106
I9
sg123
I26
sg203
I106
sg165
I68
sg131
I34
sg175
I78
sg200
I103
sg101
I4
sg184
I87
sg142
I45
sg103
I6
sg127
I30
sg152
I55
sg100
I3
sg144
I47
sg155
I58
sg153
I56
sg122
I25
sg110
I13
sg161
I64
sg118
I21
sg187
I90
sg149
I52
sg164
I67
sg192
I95
sg151
I54
sg180
I83
sg126
I29
sg117
I20
sg208
I111
sg141
I44
sg102
I5
sg147
I50
sg137
I40
sg150
I53
sg133
I36
sg113
I16
sg140
I43
sg186
I89
sg143
I46
sg120
I23
sg119
I22
sg170
I73
sg199
I102
sg202
I105
sg185
I88
sg145
I48
sg168
I71
sg159
I62
sg181
I84
sg171
I74
sg128
I31
sg190
I93
sg209
I112
sg157
I60
sg130
I33
sg167
I70
sg158
I61
sg129
I32
sg174
I77
sg134
I37
sg194
I97
sg160
I63
sg166
I69
sg197
I100
sg172
I75
sg99
I2
sg97
I0
sg189
I92
sg139
I42
sg98
I1
sg176
I79
sg206
I109
sg183
I86
sg112
I15
sg173
I76
sg163
I66
sg193
I96
sg124
I27
sg116
I19
sg179
I82
sg121
I24
sg104
I7
sg198
I101
sg177
I80
sg136
I39
sg162
I65
sg148
I51
sg114
I17
sg207
I110
sg115
I18
ssS'separator'
p214
S'='
p215
sS'sparse'
p216
I01
sg49
g50
sbsb.