ccopy_reg
_reconstructor
p0
(cnltk.classify.scikitlearn
SklearnClassifier
p1
c__builtin__
object
p2
Ntp3
Rp4
(dp5
S'_clf'
p6
g0
(csklearn.linear_model.logistic
LogisticRegression
p7
g2
Ntp8
Rp9
(dp10
S'warm_start'
p11
I00
sS'C'
p12
F1.0
sS'classes_'
p13
cnumpy.core.multiarray
_reconstruct
p14
(cnumpy
ndarray
p15
(I0
tp16
S'b'
p17
tp18
Rp19
(I1
(I2
tp20
cnumpy
dtype
p21
(S'i8'
p22
I0
I1
tp23
Rp24
(I3
S'<'
p25
NNNI-1
I-1
I0
tp26
bI00
S'\x00\x00\x00\x00\x00\x00\x00\x00\x01\x00\x00\x00\x00\x00\x00\x00'
p27
tp28
bsS'n_jobs'
p29
I1
sS'verbose'
p30
I0
sS'fit_intercept'
p31
I01
sS'max_iter'
p32
I100
sS'class_weight'
p33
NsS'n_iter_'
p34
g14
(g15
(I0
tp35
g17
tp36
Rp37
(I1
(I1
tp38
g21
(S'i4'
p39
I0
I1
tp40
Rp41
(I3
S'<'
p42
NNNI-1
I-1
I0
tp43
bI00
S'\x04\x00\x00\x00'
p44
tp45
bsS'intercept_'
p46
g14
(g15
(I0
tp47
g17
tp48
Rp49
(I1
(I1
tp50
g21
(S'f8'
p51
I0
I1
tp52
Rp53
(I3
S'<'
p54
NNNI-1
I-1
I0
tp55
bI00
S'C\xa7o\xb05\xd3\x90?'
p56
tp57
bsS'penalty'
p58
S'l2'
p59
sS'multi_class'
p60
S'ovr'
p61
sS'random_state'
p62
NsS'_sklearn_version'
p63
S'0.18'
p64
sS'dual'
p65
I00
sS'tol'
p66
F0.0001
sS'coef_'
p67
g14
(g15
(I0
tp68
g17
tp69
Rp70
(I1
(I1
I113
tp71
g53
I01
S'\x00\x00\x00\x00\x00\x00\x00\x00\x00\x00\x00\x00\x00\x00\x00\x00\x00\x00\x00\x00\x00\x00\x00\x005:NJ\xf2\xde\xd9\xbf\x00\x00\x00\x00\x00\x00\x00\x005:NJ\xf2\xde\xd9\xbf\x00\x00\x00\x00\x00\x00\x00\x00\x00\x00\x00\x00\x00\x00\x00\x00\x00\x00\x00\x00\x00\x00\x00\x00\x00\x00\x00\x00\x00\x00\x00\x00\x00\x00\x00\x00\x00\x00\x00\x00\x1f[[O\xa7v\xd9?\x00\x00\x00\x00\x00\x00\x00\x00\x00\x00\x00\x00\x00\x00\x00\x00\x00\x00\x00\x00\x00\x00\x00\x00\x1f[[O\xa7v\xd9?)|\x97syn\xe5?\x00\x00\x00\x00\x00\x00\x00\x00\x00\x00\x00\x00\x00\x00\x00\x00\x00\x00\x00\x00\x00\x00\x00\x00\x00\x00\x00\x00\x00\x00\x00\x00\x00\x00\x00\x00\x00\x00\x00\x00\x00\x00\x00\x00\x00\x00\x00\x00\x00\x00\x00\x00\x00\x00\x00\x005:NJ\xf2\xde\xd9\xbf\x00\x00\x00\x00\x00\x00\x00\x00\x00\x00\x00\x00\x00\x00\x00\x00\x1f[[O\xa7v\xd9?\x00\x00\x00\x00\x00\x00\x00\x00\x00\x00\x00\x00\x00\x00\x00\x00\x1f[[O\xa7v\xd9?\x00\x00\x00\x00\x00\x00\x00\x00\x00\x00\x00\x00\x00\x00\x00\x00\x00\x00\x00\x00\x00\x00\x00\x00\x00\x00\x00\x00\x00\x00\x00\x00\x00\x00\x00\x00\x00\x00\x00\x00\x00\x00\x00\x00\x00\x00\x00\x00\x00\x00\x00\x00\x00\x00\x00\x00\x00\x00\x00\x00\x00\x00\x00\x00\x00\x00\x00\x00\x00\x00\x00\x00\x00\x00\x00\x00\x00\x00\x00\x00\x00\x00\x00\x00\x00\x00\x00\x00\x00\x00\x00\x00\x00\x00\x00\x00\x00\x00\x00\x00\x00\x00\x00\x00\x00\x00\x00\x00\x00\x00\x00\x00\x00\x00\x00\x00\x00\x00\x00\x00\x00\x00\x00\x00\x00\x00\x00\x00\x00\x00\x00\x00\x00\x00\x00\x00\x00\x00\x00\x00\x00\x00\x00\x00\x00\x00\x00\x00\x00\x00\x00\x00\x00\x00\x00\x00\x00\x00\x00\x00\x00\x00\x00\x00\x00\x00\x00\x00\x00\x00\x00\x00\x00\x00\x00\x00\x00\x00\x00\x00\x00\x00\x00\x00\x00\x00\x00\x00\x00\x00\x00\x00\x00\x00\x00\x00\x00\x00\x00\x00\x00\x00\x00\x00\x00\x00\x00\x00\x00\x00\x00\x00\x00\x00\x00\x00\x00\x00\x00\x00\x00\x00\x00\x00\x00\x00\x00\x00\x00\x00\x00\x00\x00\x00\x00\x00\x00\x00\x00\x00\x00\x00\x00\x00\x00\x00\x00\x00\x00\x00\x00\x00\x00\x00\x00\x00\x00\x00\x00\x00\x00\x00\x00\x00\x00\x00\x00\x00\x00\x00\x00\x00\x00\x00\x00\x00\x00\x00\x00\x00\x00\x00\x00\x00\x00\x00\x00\x00\x00\x00\x00\x00\x00\x00\x00\x00\x00\x00\x00\x00\x00\x00\x00\x00\x00\x00\x00\x00\x00\x00\x00\x00\x00\x00\x00\x00\x00\x00\x00\x00\x00\x00\x00\x00\x00\x00\x00\x00\x00\x00\x00\x00\x00\x00\x00\x00\x00\x00\x00\x00\x00\x00\x00\x00\x00\x00\x00\x00\x00\x00\x00\x00\x00\x00\x00\x00\x00\x00\x00\x00\x00\x00\x00\x00\x00\x00\x00\x00\x00\x00\x00\x00\x00\x00\x00\x00\x00\x00\x00\x00\x00\x00\x00\x00\x00\x00\x00\x00\x00\x00\x00\x00\x00\x00\x00\x00\x00\x00\x00\x00\x00\x00\x00\x00\x00\x00\x00\x00\x00\x00\x00\x00\x00\x00\x00\x00\x00\x00\x00\x00\x00\x00\x00\x00\x00\x00\x00\x00\x00\x00\x00\x00\x00\x00\x00\x00\x00\x00\x00\x00\x00\x00\x00\x00\x00\x00\x00\x00\x00\x00\x00\x00\x00\x00\x00\x00\x00\x00\x00\x00\x00\x00\x00\x00\x00\x00\x00\x00\x00\x00\x00\x00\x00\x00\x00\x00\x00\x00\x00\x00\x00\x00\x00\x00\x00\x00\x00\x00\x00\x00\x00\x00\x00\x00\x00\x00\x00\x00\x00\x00\x00\x00\x00\x00\x00\x00\x00\x00\x00\x00\x00\x00\x00\x00\x00\x00\x00\x00\x00\x00\x00\x00\x00\x00\x00\x00\x00\x00\x00\x00\x00\x00\x00\x00\x00\x00\x00\x00\x00\x00\x00\x00\x00\x00\x00\x00\x00\x00\x00\x00\x00\x00\x00\x00\x00\x00\x00\x00\x00\x00\x00\x00\x00\x00\x00\x00\x00\x00\x00\x00\x00\x00\x00\x00\x00\x00\x00\x00\x00\x00\x00\x00\x00\x00\x00\x00\x00\x00\x00\x00\x00\x00\x00\x00\x00\x00\x00\x00\x00\x00\x00\x00\x00\x00\x00\x00\x00\x00\x00\x00\x00\x00\x00\x00\x00\x00\x00\x00\x00\x00\x00\x00\x00\x00\x00\x00\x00\x00\x00\x00\x00\x00\x00\x00\x00\x00\x00\x00\x00\x00\x00\x00\x00\x00\x00\x00\x00\x00\x00\x00\x00\x00\x00\x00\x00\x00'
p72
tp73
bsS'solver'
p74
S'liblinear'
p75
sS'intercept_scaling'
p76
I1
sbsS'_encoder'
p77
g0
(csklearn.preprocessing.label
LabelEncoder
p78
g2
Ntp79
Rp80
(dp81
g13
g14
(g15
(I0
tp82
g17
tp83
Rp84
(I1
(I2
tp85
g21
(S'S3'
p86
I0
I1
tp87
Rp88
(I3
S'|'
p89
NNNI3
I1
I0
tp90
bI00
S'negpos'
p91
tp92
bsg63
g64
sbsS'_vectorizer'
p93
g0
(csklearn.feature_extraction.dict_vectorizer
DictVectorizer
p94
g2
Ntp95
Rp96
(dp97
S'sort'
p98
I01
sS'feature_names_'
p99
(lp100
S'+do+not+worry+it+will+may+be+fix+in+next+update..+i+got+antutu+score+above+128000+max..+performance+is+main+highlight+of+this+phone+truly+beast..+it+does+not+heat+on+maximum+performance+keep+in+mind+friends..+dash+charging+-what+a+great+idea+of+oneplus+team+hats+off..'
p101
aS'+it+is+just+at+a+15-20+degrees+of+angle.+lazy+i+m.+don'
p102
aS'+which+has+a+great+higher-res+display+and+plenty+of+high-end+configuration+options.but+that+doesn'
p103
aS'..unacceptable'
p104
aS'.but+the+adp+and+the+way+to+activate+adp+is+totally+ridiculous'
p105
aS'.hope+for+the+best'
p106
aS'.packing+was+great+as+usual'
p107
aS'21+many+others+reasons+-+best+fingerprint+scanner'
p108
aS'21+never+needed+to.+it+sleeps+the+instant+you+put+down+the+lid+and+wakes+the+instant+you+open+the+lid+-+zero+lag+so+far'
p109
aS'21even+if+i+buy+a+license+of+windows+10+and+install+it+via+boot-camp+'
p110
aS'21finally+-+it+sips+battery'
p111
aS'22-+for+a+full-time+gamer'
p112
aS'23never+settle..u+have+to+compromise+with+this+only+thing..+camera+is+good+but+not+good+in+low+light..+also+its+takes+more+time+to+lock+object+because+it+lacks+laser+autofocus..+but+overall+ok+last+but+not+list+is+after+one+month+of+usage+i+saw+first+time+my+phone+was+lagged+in+multitasking-asphalt+8+was+reopened+in+swtching+between+only+4-5+apps'
p113
aS'25+in+15-20mins.+display+is+brilliant+and+the+oneplus+experience+continues+to+evolve+for+the+better'
p114
aS'25+in+just+30+minutes.the+camera+on+the+oneplus+3+is+a+huge+improvement+over+the+previous+generation.+the+16-megapixel+sony+imx+298+sensor+primary+camera+delivers+a+good+picture+quality+and+features+optical+image+stabilisation'
p115
aS'25+to+50-55'
p116
aS'25-100'
p117
aS'25.+the+only+back+drop+would+be+a+few+oxygen+bugs+and+its+in-expandable+storage+but+the+os+on+the+whole+is+a+good+one+and+the+op3+has+otg+support+which+covers+the+storage+problem.+hope+this+review+helped+-dd+'
p118
aS'26+now+oneplus+3+also+for+2+months+but+overall+in-hand+feel+'
p119
aS'26+reflection+of+graphite+black+version.first+day+rooted+this+phone+after+updating+the+phone+with+latest+update.battery+life+is+decent+about+4-5+hours+of+screen+on+time+without+any+sim+card+right+now.fingerprint+sensor+is+fastest+on+android+phones+'
p120
aS'27+inch+display+which+can+give+full+hd+display.+the+16+mp+back+cam+gives+crystal+clear+images+and+it+also+has+a+manual+mode+for+photographers+to+get+that+just+right+candid+pic.+the+front+8+mp+is+a+classy+one+for+selfies+and+can+give+u+pics+at+a+smile.+the+3000mhz+battery+is+made+to+last+long+but+the+load+on+it+due+to+the+processor+and+ram+make+it+last+upto+14-15+hours+but+its+dash+charge+omg+just+give+it+15+mins+ur+battery+is+up+to+35'
p121
aS'27+on+tuesday+evening+traveling+over+60+kms+to-fro+in+mumbai+after+diwali+weekend+which+became+forced+leave+for+me.+amazon+representative+collected+phone+on+3rd+november+in+morning'
p122
aS'27.+i+threw+off+my+4-5+yo+sony+xperia.+kidding+xd+i+didn'
p123
aS'27ll+like+to+say+oneplus+3+is+just+a+great+buy+i+need+not+to+spend+50-60+k+for+a+double.about+phone+now+the+build+of+phone+is+great+and+looks+premium.there+is+a+tempered+guard+in+mobile+.+the+camera+is+good+i+won'
p124
aS'27re+even+water-resistant'
p125
aS'27re+good+to+go+for+another+4-5+hours.+the+speaker+is+very+nice+and+loud+and+audio+output+is+very+good.+over+all'
p126
aS'27re+still+looking+at+no-compromise+all-day+battery+life.if+not+for+the+continued+battery-life+dominance+and+the+relatively+low+starting+price'
p127
aS'27s+a+one-time+investment'
p128
aS'27s+advanced+operating+system-+os+x+ei+captain+even+more+powerful+and+easier+to+use.it+comes+with+an+amazing+collection+of+apps.control+macbook+air+with+amazing+gesture.two-finger+swipe+to+navigate.three+fingers+swipe.mission+control-+swipe+up.pinch+to+zoom.superb+browsing+experience+ever.it+only+comes+with+12+hours+of+battery+life+in+'
p129
aS'27s+dash+charge+technology+saves+your+time+in+charging..+the+best+part+of+the+phone+is+its+interface+and+working+-+simple'
p130
aS'27s+like+you+kept+it+for+10-20+mins+and+then+boom+'
p131
aS'27s+looking+for+changing+your+old+phone+-+op3+can+most+definitely+be+included+in+your+shortlist'
p132
aS'27t+come+our+very+well+as+the+shutter+speed+is+not+very+fast.video+capture+quality+is+amazing.+finger+print+sensor+is+lightning+fast.+have+compared+its+response+speed+with+other+mid-range+phones+like+redmi+note+3'
p133
aS'27t+notice+the+difference+in+day+to+day+use+unless+you+are+a+gamer+and+watch+movies+on+your+phone+a+lot.one+bug+i+face+is+the+switching+between+wi-fi+and+cellular+data.+if+both+are+turned+off+and+you+try+to+just+turn+on+cellular+data'
p134
aS'27t+panic+as+we+have+a+solution.+just+need+to+download+a+driver+for+the+wifi+using+the+ethernet+cable+and+from+then+your+wi-fi+will+work.+check+out+you+tube+if+you+require+a+real+time+assistance.+the+sound+quality+is+good.+trackpad+has+a+decent+response.+camera+quality+is+better+when+compare+to+the+previous+version+of+dell+which+i+owned+'
p135
aS'28a+model+with+an+11.6-inch+screen+and+otherwise+very+similar+specs+is+available+for+even+less.'
p136
aS'28for+many+reasons-+none+cos+i+hate+ios'
p137
aS'28i+wont+-+cause+i+am+not+wedded+to+windows+for+my+apps'
p138
aS'28sometime+3-4+gb+each+week'
p139
aS'29+.consider+this+-+this+is+better+built'
p140
aS'29+easily+online+-+nor+in+stores.+basically+nothing+was+available+that+could+offer+me+these+specs+and+portability+at+this+price+point'
p141
aS'29.and+my+absolute+favorite+thing+-+i+have+only+put+this+machine+to+sleep+'
p142
aS'29.best+-+camera+is+awesome'
p143
aS'29.so+that+might+make+your+captured+video+anti-shake+one+and+also+would+be+better+while+viewing+it.it+has+a+very+fabulous+benchmark+score+of+138000+on+an+average.that+might+easily+give+you+an+idea+of+how+good+does+it+perform+in+day+to+day+life+scenario'
p144
aS'29.so+that+might+make+your+captured+video+anti-shake+one+and+also+would+be+better+while+viewing+it.it+has+a+very+fabulous+benchmark+score+of+138000+on+an+averagethat+might+easily+give+you+an+idea+of+how+good+does+it+perform+in+day+to+day+life+scenario'
p145
aS'2b.+apple+boasts+that+the+new+dual-lens+camera+is+the+best+on+the+market'
p146
aS'2c+and+all+your+skepticism+is+out+of+the+window.-the+build+quality+exudes+of+a+premium+finish+and+feel.-osx+is+as+powerful+as+it+is+secure.+and+combine+that+with+the+hardware+under+the+hood'
p147
aS'2c+and+the+low+light+performance+of+the+camera+could+be+improved+a+little.+but+this+is+nothing+serious+since+the+battery+does+last+for+the+whole+day+and+camera+does+perform+really+well+in+most+situations.also+you+will+have+to+buy+a+screen+guard+or+a+tempered+glass+anyway+since+the+one+pre-installed+on+the+phone+doesn'
p148
aS'2c+and+there+were+some+file+format+recognition+issues+which+prevented+us+from+running+some+video+and+audio+files+on+the+phone.+pictures+taken+in+low-light+weren'
p149
aS'2c+as+it+is+already+a+two-year-old+soc+by+now.+you'
p150
aS'2c+as+well+as+the+non-apple+competition.+even+if+more+challenging+tasks+or+heavy+online+streaming+cut+that+number+by+40+percent+or+so'
p151
aS'2c+be+sure+not+to+lose+that+dongle+before+then.+dual-lens+camera+is+only+available+in+7'
p152
aS'2c+but+also+there+at+your+disposal.-havent+encountered+a+single+bug+so+far.+literally+none-streamline'
p153
aS'2c+but+those+changes+have+felt+very+minor.+especially+so+when+compared+to+the+groundbreaking+new-for-2015+12-inch+macbook+'
p154
aS'2c+but+you+still+can+manage+to+play+games+released+in+2013+-+2014.+battery+backup+is+good'
p155
aS'2c+carry+the+charge+once+-+lasts+a+week+type+of+phone.+if+your+train+journey+is+40+hours+then+go+by+flight'
p156
aS'2c+colors+are+vibrant+and+accurate.i+recommend+u+to+buy+this+phone+if+u+are+looking+for+a+phone+in+range+of+25-30k.another+options+for+u+in+this+range+are+mi5+or+le+max2+but+since+only+white+variant+of+mi5+is+available+in+india+and+the+processor+is+also+underclocked+'
p157
aS'2c+else+the+phone+may+power+off.keyboard+is+great.+review+typed+on+the+swiftkey+keyboard+that+comes+pre-installed'
p158
aS'2c+feel+free+to+play+with+the+windows+toys..this+is+not+a+cheaply+plastic+made+windows+commodity+that+starts+falling+apart+within+a+year+or+two+of+heavy+usage.+the+macbook+pro+is+built+to+last+at+least+6+years.+and+as+a+long+time+user+i+stand+by+that.-the+apple+post+purchase+support+is+unrivalled.+be+it+online+or+in+store+support.+or+even+the+ota+updates+for+even+a+5+year+old+machine.-+the+display+is+just+to+die+for.+one+look+and+you+will+be+in+awe+of+the+pro+retina+technology.+colours+aren'
p159
aS'2c+gaming+and+camera+experience.+totally+in+love+with+my+oneplus3+soft+gold.highest+remark-ability+is+the+performance+speed+and+the+charging+speed'
p160
aS'2c+htc+and+lg.+the+android+marshmallow+powered+device+runs+oxygen+os+bloatware+by+oneplus+that+is+otherwise+very+non-intruding+to+the+android+phone+experience.+some+interesting+customisation+options+include+a+'
p161
aS'2c+i+just+copied+a+little+over+5gb+of+data+from+one+part+of+my+computer+to+another+in+less+than+10seconds.optimized+os+and+long+battery+life+of+upto+8-10+hours.aesthetic+appeal+of+apple+'
p162
aS'2c+i+use+social+media+a+lot.+i+used+to+get+4.5+-+5+hours+of+screen+on+time'
p163
aS'2c+if+you+really+need+it+-+i+am+all+for+google+docs'
p164
aS'2c+is+definitely+not+honest.+i+have+downloaded+it+and+works+like+breeze.+update+was+heavy+though+-4.88+gb.disk+space+is+less+but+you+know+it+when+you+buy+it+right'
p165
aS'2c+it+would+be+easy+to+ease+the+macbook+air+aside+and+suggest+the+pro+or+12-inch+macbook+instead.+instead'
p166
aS'2c+laptop+hardware+is+tampered+in-+transit'
p167
aS'2c+lets+spend+some+extra+and+be+happy+lag+free+for+a+couple+of+years-+experienced+a+little+lag+and+heat+there+too'
p168
aS'2c+mac+os+x+works+like+a+charm+-+i+have+tried+it+for+the+first+time'
p169
aS'2c+multi-+tab+browsing'
p170
aS'2c+multi-tasking+is+a+whole+new+level.to+anyone+moaning+'
p171
aS'2c+nobody+is+perfect+in+this+world+even+those+expensive+useless+i-phones'
p172
aS'2c+nothing+else+exists+that+does+what+it+does+currently+-+allow+me+to+elaborate'
p173
aS'2c+nothing+to+complain+about+as+far+as+quality+of+the+product+is+concerned.+apple+is+definitely+king+of+the+hill+when+it+comes+to+laptops+-+i+love+windows+still+for+certain+tasks+and+this+is+my+first+affair+with+apple+in+a+long+time+'
p174
aS'2c+now+the+device+is+not+switching+on+in+a+single+try.+we+have+to+press+the+power+button+a+couple+of+times+-+deep+press+one+time'
p175
aS'2c+one+can+see+the+level+of+black+and+contrast+in+images.the+device+is+pretty+light+for+its+size+and+also+a+looker+as+you+can+see+in+the+attached+pics.+the+bundled+dash-charger+does+what+it+says+and+charges+the+thing+pretty+quickly+so+you+are+not+left+in+a+low+battery+situation+all+the+time.+all+in+all+this+is+money+well+spent+and+deserves+more+than+the+price+it+asks+for'
p176
aS'2c+phase+detection+autofocus+and+raw+image+format+support.+you+can+also+shoot+4k+videos+and+slow+motion+at+120+fps.+this+is+pretty+much+the+standard+on+flagship+phones+these+days.the+image+quality+is+better+than+what+you+might+find+on+the+motorola+moto+x+and+moto+x+style+which+is+in+the+same+price+bracket+as+the+oneplus+3.+for+selfie+lovers+the+8-megapixel+sensor+with+1.4-micron+pixels+does+the+job+with+ease+and+it+can+also+shoot+videos+at+1080p+'
p177
aS'2c+photos+and+more.+built-in+dvd+drive'
p178
aS'2c+s-pen+and+touch+viz+exp.+i+feel+the+front+facing+cam+is+better+on+this+than+the+one+on+note+5.+rear+cam+is+debatable.+battery+is+superb.+totally+happy.+dash+charging+is+awesome.+solid+bulid.+looks+great+but+they+should+give+more+colours+like+black+also.+it+would+crazy+in+black+full+metal+finish'
p179
aS'2c+sans+clutter.-+combine+this+laptop+with+an+iphone+or+an+ipad+and+a+whole+new+dynamic+of+information+sharing+amongst+the+devices+is+unlocked.this+laptop+is+not+just+for+a+professional+but+any+regular+joe+or+a+student+who+wants+a+powerful+yet+seamless+multi+tasking+experience'
p180
aS'2c+somebody+else+will+find+it+useful.the+default+screen-guard+is+a+little+smaller+in+the+perimeter.+but+has+not+developed+any+bubbles+yet.battery+life+not+that+satisfactory.+sometimes+need+to+charge+it+twice+a+day.+this+without+heavy+usage.+half+an+hour+8'
p181
aS'2c+specifically.+read+this+review+once+and+i+bet+you+would+end+up+with+a+deep+urge+to+own+this+beast.for+the+note+-+i+am+a+computer+science+engineering+student'
p182
aS'2c+super-fast+processor'
p183
aS'2c+surely+you+can+get+a+better+configuration+at+this+range+on+other+windows-based+system'
p184
aS'2c+thanks+to+a+still-slim+design'
p185
aS'2c+thanks+to+all+those+negative+comments.+but+i+will+definitely+recommend+that+you+buy+this+if+you+want+a+cell+phone+which+will+not+bug+you+with+low+efficiency+bugs.+oneplus+has+done+a+great+job+with+this+beauty.+battery+life+and+charging+are+very+good.+i+only+get+bugged+by+the+auto-brightness+feature+but+its+nothing+which+can'
p186
aS'2c+the+display+is+excellent+and+it+comes+with+a+pre-applied+scratch+guard.+the+finger+print+reader+is+very+quick+and+accurate.+the+camera+is+good+and+performs+well+in+low+light+conditions.+charging+is+quite+fast+as+advertised+with+little+heating+of+the+device.+battery+management+is+good+and+it+lasts+for+at+least+a+day+with+normal+use.+some+might+not+like+the+fact+that+the+internal+memory+is+non-expandable+but+56+gb+of+available+storage+should+be+more+than+enough.+overall'
p187
aS'2c+the+phone+lasts+easily+a+day+and+a+half.+the+phone+comes+with+fast+charging+too+on+the+usb+type-c+and+can+charge+from+0-60'
p188
aS'2c+though+i+felt+it+could+have+been+increased+a+bit+in+the+design.battery+runs+for+about+2+days+for+my+usage+with+optimum+use+of+wi-fi+and+4g+when+needed'
p189
aS'2c+to+themselves+as+well+as+your+wrists.-invisible+elements+like+the+forced+touch+trackpad+or+the+spectacular+colour+scheme+management+of+the+pro+retina+display+seem+to+become+second+nature.+and+it+is+when+you+use+a+simple+windows+laptop+that+you+realise+the+lack+of+the+afore+mentioned+features.-+video+editing'
p190
aS'2c+watch+movies+and+load+software+with+an+optional+built-in+dvd+drive.+easily+store+high+volumes+of+data+on+your+dvds+for+file+archiving'
p191
aS'2c+we+test+inspiron+laptops+for+survival+in+harsh+short-term+heat+conditions+of+up+to+65'
p192
aS'2c+what+charging+speeds.+the+dash+charge+technology+by+oneplus+makes+it+astonishingly+fast+charging.+20-100'
p193
aS'2c+will+always+work+smoothly+and+still+stay+within+your+price+range+for+the+set+of+specs+it+has.+with+6gb+of+ram+and+snapdragon+820+its+going+to+last+well+into+the+future.+oxygenos+is+one+of+the+better+roms+as+far+as+keeping+a+balance+goes+between+stock+android+and+any+added+sophistication.+the+camera+is+also+pretty+cool+and+has+got+features+like+time+lapse+and+slow-motion+video.+the+amoled+screen+is+a+delight+to+look+at'
p194
aS'2c+you+can+take+on+your+day-to-day+tasks+with+the+responsive+power+of+4th+gen+intel+core+tm+processors.+an+available+2gb2+discrete+graphics+option+allows+you+to+complete+more+intensive+tasks+without+sacrificing+performance.+more+ways+to+enjoy+hd+clarity'
p195
aS'2c000.the+device+has+4g+connectivity+with+support+for+both+fdd-band+3+and+tdd-band+40+that+are+widely+used+in+india.+you+also+get+wifi+a'
p196
aS'2cthis+configuration+is+not+available+at+this+price.+warranty+also+got+registered+at+website.+installing+win-7+and+then+updated+to+10+is+working+really+nice.+drivers+were+updated+automatically+on+updating+with+win-10.+only+problem+with+its+weight+else+is+absolutely+fine.+looks+bulky+and+heavy'
p197
aS'2f-'
p198
aS'2fa+13.3-inch+laptop+is+amazing+product+its+light+and+worth+the+money.i+got+it+for+62k+and+the+seller+was+gadge+tree+which+gave+me+a+bill+that+matches+the+serial+no+on+the+product+itself.the+only+issue+is+the+year+make+of+the+product+i+got+the+early+2015+make+which+is+a+bit+sad+as+we+are+already+in+the+late+2016.so+an+early+2016+make+would+have+been+nice'
p199
aS'2fvideo+port.+the+built-in+flash+storage'
p200
aS'2fvideos+have+good+blacks+and+seem+to+just+pop.-the+whole+osx+interface+is+very+subtle+and+always+seems+to+take+a+backseat'
p201
aS'3a+my+previous+screen+had+a+semi-hd+resolution+so+this+transition+has+brought+to+my+notice+some+never+before+changes+in+display.touchpad'
p202
aS'3a+venture+away+from+the+power+outlet+with+confidence.+with+long-lasting+battery+life'
p203
aS'camera+performance+of+this+device+is+also+very+good.+it+has+16+mp+primary+which+has+a+pretty+good+advanced+options+to+capture+pics+and+videos.+as+compared+to+xiaomi+mi+5+the+picture+quality+is+good+but+we+can'
p204
aS'it+comes+with+a+ubuntu+14.04+version.+initially+you+will+not+be+able+to+connect+to+wi-fi.+don'
p205
aS'its+not+even+2+month+now+and+the+phone+is+not+working.first+voice+quality+was+bad+from+the+beginning+but+i+ignored+for+few+days.+later+if+i+turned+on+the+loudspeaker+the+other+side+can'
p206
aS'sure'
p207
aS'this+cell+phone+display+not+working+please+change+the+same+cell+phone+i+can'
p208
aS'this+is+a+phone+you+can'
p209
aS'u+get+a+whopping+6+gb+ram+'
p210
aS'words+can'
p211
aS'worst+laptop+that+i+had+ever+seen'
p212
aS'worst+laptop.+sound+quality+and+touchpad+are+pathetic'
p213
asS'dtype'
p214
c__builtin__
float
p215
sS'vocabulary_'
p216
(dp217
g112
I11
sg115
I14
sg142
I41
sg158
I57
sg109
I8
sg205
I104
sg129
I28
sg139
I38
sg200
I99
sg186
I85
sg160
I59
sg150
I49
sg111
I10
sg113
I12
sg199
I98
sg192
I91
sg209
I108
sg136
I35
sg182
I81
sg173
I72
sg208
I107
sg195
I94
sg110
I9
sg127
I26
sg207
I106
sg169
I68
sg135
I34
sg179
I78
sg204
I103
sg105
I4
sg188
I87
sg146
I45
sg107
I6
sg131
I30
sg156
I55
sg104
I3
sg148
I47
sg159
I58
sg157
I56
sg126
I25
sg114
I13
sg165
I64
sg122
I21
sg191
I90
sg153
I52
sg168
I67
sg196
I95
sg155
I54
sg184
I83
sg130
I29
sg121
I20
sg212
I111
sg145
I44
sg106
I5
sg151
I50
sg141
I40
sg154
I53
sg137
I36
sg117
I16
sg144
I43
sg190
I89
sg147
I46
sg124
I23
sg123
I22
sg174
I73
sg203
I102
sg206
I105
sg189
I88
sg149
I48
sg172
I71
sg163
I62
sg185
I84
sg175
I74
sg132
I31
sg194
I93
sg213
I112
sg161
I60
sg134
I33
sg171
I70
sg162
I61
sg133
I32
sg178
I77
sg138
I37
sg198
I97
sg164
I63
sg170
I69
sg201
I100
sg176
I75
sg103
I2
sg101
I0
sg193
I92
sg143
I42
sg102
I1
sg180
I79
sg210
I109
sg187
I86
sg116
I15
sg177
I76
sg167
I66
sg197
I96
sg128
I27
sg120
I19
sg183
I82
sg125
I24
sg108
I7
sg202
I101
sg181
I80
sg140
I39
sg166
I65
sg152
I51
sg118
I17
sg211
I110
sg119
I18
ssS'separator'
p218
S'='
p219
sS'sparse'
p220
I01
sg63
g64
sbsb.