ccopy_reg
_reconstructor
p0
(cnltk.classify.naivebayes
NaiveBayesClassifier
p1
c__builtin__
object
p2
Ntp3
Rp4
(dp5
S'_labels'
p6
(lp7
S'neg'
p8
aS'pos'
p9
asS'_feature_probdist'
p10
(dp11
(g9
S'27ll+like+to+say+oneplus+3+is+just+a+great+buy+i+need+not+to+spend+50-60+k+for+a+double.about+phone+now+the+build+of+phone+is+great+and+looks+premium.there+is+a+tempered+guard+in+mobile+.+the+camera+is+good+i+won'
p12
tp13
g0
(cnltk.probability
ELEProbDist
p14
g2
Ntp15
Rp16
(dp17
S'_gamma'
p18
F0.5
sS'_N'
p19
I193
sS'_freqdist'
p20
cnltk.probability
FreqDist
p21
((dp22
I00
I193
stp23
Rp24
sS'_bins'
p25
I1
sS'_divisor'
p26
F193.5
sbs(g9
S'2b.+apple+boasts+that+the+new+dual-lens+camera+is+the+best+on+the+market'
p27
tp28
g0
(g14
g2
Ntp29
Rp30
(dp31
g18
F0.5
sg19
I193
sg20
g21
((dp32
I00
I193
stp33
Rp34
sg25
I1
sg26
F193.5
sbs(g8
S'2c+if+you+really+need+it+-+i+am+all+for+google+docs'
p35
tp36
g0
(g14
g2
Ntp37
Rp38
(dp39
g18
F0.5
sg19
I189
sg20
g21
((dp40
I00
I189
stp41
Rp42
sg25
I1
sg26
F189.5
sbs(g9
S'2c+i+just+copied+a+little+over+5gb+of+data+from+one+part+of+my+computer+to+another+in+less+than+10seconds.optimized+os+and+long+battery+life+of+upto+8-10+hours.aesthetic+appeal+of+apple+'
p43
tp44
g0
(g14
g2
Ntp45
Rp46
(dp47
g18
F0.5
sg19
I193
sg20
g21
((dp48
I00
I193
stp49
Rp50
sg25
I1
sg26
F193.5
sbs(g9
S'..unacceptable'
p51
tp52
g0
(g14
g2
Ntp53
Rp54
(dp55
g18
F0.5
sg19
I193
sg20
g21
((dp56
I00
I193
stp57
Rp58
sg25
I2
sg26
F194.0
sbs(g9
S'29.so+that+might+make+your+captured+video+anti-shake+one+and+also+would+be+better+while+viewing+it.it+has+a+very+fabulous+benchmark+score+of+138000+on+an+averagethat+might+easily+give+you+an+idea+of+how+good+does+it+perform+in+day+to+day+life+scenario'
p59
tp60
g0
(g14
g2
Ntp61
Rp62
(dp63
g18
F0.5
sg19
I193
sg20
g21
((dp64
I00
I193
stp65
Rp66
sg25
I1
sg26
F193.5
sbs(g9
S'2c+gaming+and+camera+experience.+totally+in+love+with+my+oneplus3+soft+gold.highest+remark-ability+is+the+performance+speed+and+the+charging+speed'
p67
tp68
g0
(g14
g2
Ntp69
Rp70
(dp71
g18
F0.5
sg19
I193
sg20
g21
((dp72
I00
I193
stp73
Rp74
sg25
I1
sg26
F193.5
sbs(g8
S'2cthis+configuration+is+not+available+at+this+price.+warranty+also+got+registered+at+website.+installing+win-7+and+then+updated+to+10+is+working+really+nice.+drivers+were+updated+automatically+on+updating+with+win-10.+only+problem+with+its+weight+else+is+absolutely+fine.+looks+bulky+and+heavy'
p75
tp76
g0
(g14
g2
Ntp77
Rp78
(dp79
g18
F0.5
sg19
I189
sg20
g21
((dp80
I00
I189
stp81
Rp82
sg25
I1
sg26
F189.5
sbs(g8
S'2c+it+would+be+easy+to+ease+the+macbook+air+aside+and+suggest+the+pro+or+12-inch+macbook+instead.+instead'
p83
tp84
g0
(g14
g2
Ntp85
Rp86
(dp87
g18
F0.5
sg19
I189
sg20
g21
((dp88
I00
I189
stp89
Rp90
sg25
I1
sg26
F189.5
sbs(g8
S'2c+i+use+social+media+a+lot.+i+used+to+get+4.5+-+5+hours+of+screen+on+time'
p91
tp92
g0
(g14
g2
Ntp93
Rp94
(dp95
g18
F0.5
sg19
I189
sg20
g21
((dp96
I00
I189
stp97
Rp98
sg25
I1
sg26
F189.5
sbs(g8
S'.hope+for+the+best'
p99
tp100
g0
(g14
g2
Ntp101
Rp102
(dp103
g18
F0.5
sg19
I189
sg20
g21
((dp104
I00
I188
sI01
I1
stp105
Rp106
sg25
I2
sg26
F190.0
sbs(g9
S'21finally+-+it+sips+battery'
p107
tp108
g0
(g14
g2
Ntp109
Rp110
(dp111
g18
F0.5
sg19
I193
sg20
g21
((dp112
I00
I193
stp113
Rp114
sg25
I1
sg26
F193.5
sbs(g8
S'2c+we+test+inspiron+laptops+for+survival+in+harsh+short-term+heat+conditions+of+up+to+65'
p115
tp116
g0
(g14
g2
Ntp117
Rp118
(dp119
g18
F0.5
sg19
I189
sg20
g21
((dp120
I00
I189
stp121
Rp122
sg25
I1
sg26
F189.5
sbs(g9
g115
tp123
g0
(g14
g2
Ntp124
Rp125
(dp126
g18
F0.5
sg19
I193
sg20
g21
((dp127
I00
I193
stp128
Rp129
sg25
I1
sg26
F193.5
sbs(g9
S'21+never+needed+to.+it+sleeps+the+instant+you+put+down+the+lid+and+wakes+the+instant+you+open+the+lid+-+zero+lag+so+far'
p130
tp131
g0
(g14
g2
Ntp132
Rp133
(dp134
g18
F0.5
sg19
I193
sg20
g21
((dp135
I00
I193
stp136
Rp137
sg25
I1
sg26
F193.5
sbs(g8
S'2fvideos+have+good+blacks+and+seem+to+just+pop.-the+whole+osx+interface+is+very+subtle+and+always+seems+to+take+a+backseat'
p138
tp139
g0
(g14
g2
Ntp140
Rp141
(dp142
g18
F0.5
sg19
I189
sg20
g21
((dp143
I00
I189
stp144
Rp145
sg25
I1
sg26
F189.5
sbs(g9
S'2c+multi-tasking+is+a+whole+new+level.to+anyone+moaning+'
p146
tp147
g0
(g14
g2
Ntp148
Rp149
(dp150
g18
F0.5
sg19
I193
sg20
g21
((dp151
I00
I193
stp152
Rp153
sg25
I1
sg26
F193.5
sbs(g9
S'28for+many+reasons-+none+cos+i+hate+ios'
p154
tp155
g0
(g14
g2
Ntp156
Rp157
(dp158
g18
F0.5
sg19
I193
sg20
g21
((dp159
I00
I193
stp160
Rp161
sg25
I1
sg26
F193.5
sbs(g9
S'28i+wont+-+cause+i+am+not+wedded+to+windows+for+my+apps'
p162
tp163
g0
(g14
g2
Ntp164
Rp165
(dp166
g18
F0.5
sg19
I193
sg20
g21
((dp167
I00
I193
stp168
Rp169
sg25
I1
sg26
F193.5
sbs(g9
S'2c+and+the+low+light+performance+of+the+camera+could+be+improved+a+little.+but+this+is+nothing+serious+since+the+battery+does+last+for+the+whole+day+and+camera+does+perform+really+well+in+most+situations.also+you+will+have+to+buy+a+screen+guard+or+a+tempered+glass+anyway+since+the+one+pre-installed+on+the+phone+doesn'
p170
tp171
g0
(g14
g2
Ntp172
Rp173
(dp174
g18
F0.5
sg19
I193
sg20
g21
((dp175
I00
I193
stp176
Rp177
sg25
I1
sg26
F193.5
sbs(g9
S'2c+and+there+were+some+file+format+recognition+issues+which+prevented+us+from+running+some+video+and+audio+files+on+the+phone.+pictures+taken+in+low-light+weren'
p178
tp179
g0
(g14
g2
Ntp180
Rp181
(dp182
g18
F0.5
sg19
I193
sg20
g21
((dp183
I00
I193
stp184
Rp185
sg25
I1
sg26
F193.5
sbs(g9
S'2c+is+definitely+not+honest.+i+have+downloaded+it+and+works+like+breeze.+update+was+heavy+though+-4.88+gb.disk+space+is+less+but+you+know+it+when+you+buy+it+right'
p186
tp187
g0
(g14
g2
Ntp188
Rp189
(dp190
g18
F0.5
sg19
I193
sg20
g21
((dp191
I00
I193
stp192
Rp193
sg25
I1
sg26
F193.5
sbs(g8
S'2c+but+those+changes+have+felt+very+minor.+especially+so+when+compared+to+the+groundbreaking+new-for-2015+12-inch+macbook+'
p194
tp195
g0
(g14
g2
Ntp196
Rp197
(dp198
g18
F0.5
sg19
I189
sg20
g21
((dp199
I00
I189
stp200
Rp201
sg25
I1
sg26
F189.5
sbs(g9
S'21+many+others+reasons+-+best+fingerprint+scanner'
p202
tp203
g0
(g14
g2
Ntp204
Rp205
(dp206
g18
F0.5
sg19
I193
sg20
g21
((dp207
I00
I193
stp208
Rp209
sg25
I1
sg26
F193.5
sbs(g9
S'27re+good+to+go+for+another+4-5+hours.+the+speaker+is+very+nice+and+loud+and+audio+output+is+very+good.+over+all'
p210
tp211
g0
(g14
g2
Ntp212
Rp213
(dp214
g18
F0.5
sg19
I193
sg20
g21
((dp215
I00
I193
stp216
Rp217
sg25
I1
sg26
F193.5
sbs(g9
S'2c+you+can+take+on+your+day-to-day+tasks+with+the+responsive+power+of+4th+gen+intel+core+tm+processors.+an+available+2gb2+discrete+graphics+option+allows+you+to+complete+more+intensive+tasks+without+sacrificing+performance.+more+ways+to+enjoy+hd+clarity'
p218
tp219
g0
(g14
g2
Ntp220
Rp221
(dp222
g18
F0.5
sg19
I193
sg20
g21
((dp223
I00
I193
stp224
Rp225
sg25
I1
sg26
F193.5
sbs(g9
S'25+in+15-20mins.+display+is+brilliant+and+the+oneplus+experience+continues+to+evolve+for+the+better'
p226
tp227
g0
(g14
g2
Ntp228
Rp229
(dp230
g18
F0.5
sg19
I193
sg20
g21
((dp231
I00
I193
stp232
Rp233
sg25
I1
sg26
F193.5
sbs(g9
S'25-100'
p234
tp235
g0
(g14
g2
Ntp236
Rp237
(dp238
g18
F0.5
sg19
I193
sg20
g21
((dp239
I00
I191
sI01
I2
stp240
Rp241
sg25
I2
sg26
F194.0
sbs(g9
g83
tp242
g0
(g14
g2
Ntp243
Rp244
(dp245
g18
F0.5
sg19
I193
sg20
g21
((dp246
I00
I193
stp247
Rp248
sg25
I1
sg26
F193.5
sbs(g8
S'2c+htc+and+lg.+the+android+marshmallow+powered+device+runs+oxygen+os+bloatware+by+oneplus+that+is+otherwise+very+non-intruding+to+the+android+phone+experience.+some+interesting+customisation+options+include+a+'
p249
tp250
g0
(g14
g2
Ntp251
Rp252
(dp253
g18
F0.5
sg19
I189
sg20
g21
((dp254
I00
I189
stp255
Rp256
sg25
I1
sg26
F189.5
sbs(g8
g234
tp257
g0
(g14
g2
Ntp258
Rp259
(dp260
g18
F0.5
sg19
I189
sg20
g21
((dp261
I00
I189
stp262
Rp263
sg25
I2
sg26
F190.0
sbs(g9
S'27+on+tuesday+evening+traveling+over+60+kms+to-fro+in+mumbai+after+diwali+weekend+which+became+forced+leave+for+me.+amazon+representative+collected+phone+on+3rd+november+in+morning'
p264
tp265
g0
(g14
g2
Ntp266
Rp267
(dp268
g18
F0.5
sg19
I193
sg20
g21
((dp269
I00
I193
stp270
Rp271
sg25
I1
sg26
F193.5
sbs(g9
S'2c+to+themselves+as+well+as+your+wrists.-invisible+elements+like+the+forced+touch+trackpad+or+the+spectacular+colour+scheme+management+of+the+pro+retina+display+seem+to+become+second+nature.+and+it+is+when+you+use+a+simple+windows+laptop+that+you+realise+the+lack+of+the+afore+mentioned+features.-+video+editing'
p272
tp273
g0
(g14
g2
Ntp274
Rp275
(dp276
g18
F0.5
sg19
I193
sg20
g21
((dp277
I00
I193
stp278
Rp279
sg25
I1
sg26
F193.5
sbs(g9
S'2c+multi-+tab+browsing'
p280
tp281
g0
(g14
g2
Ntp282
Rp283
(dp284
g18
F0.5
sg19
I193
sg20
g21
((dp285
I00
I193
stp286
Rp287
sg25
I1
sg26
F193.5
sbs(g9
S'it+comes+with+a+ubuntu+14.04+version.+initially+you+will+not+be+able+to+connect+to+wi-fi.+don'
p288
tp289
g0
(g14
g2
Ntp290
Rp291
(dp292
g18
F0.5
sg19
I193
sg20
g21
((dp293
I00
I193
stp294
Rp295
sg25
I1
sg26
F193.5
sbs(g9
S'2c+else+the+phone+may+power+off.keyboard+is+great.+review+typed+on+the+swiftkey+keyboard+that+comes+pre-installed'
p296
tp297
g0
(g14
g2
Ntp298
Rp299
(dp300
g18
F0.5
sg19
I193
sg20
g21
((dp301
I00
I193
stp302
Rp303
sg25
I1
sg26
F193.5
sbs(g8
S'2c+feel+free+to+play+with+the+windows+toys..this+is+not+a+cheaply+plastic+made+windows+commodity+that+starts+falling+apart+within+a+year+or+two+of+heavy+usage.+the+macbook+pro+is+built+to+last+at+least+6+years.+and+as+a+long+time+user+i+stand+by+that.-the+apple+post+purchase+support+is+unrivalled.+be+it+online+or+in+store+support.+or+even+the+ota+updates+for+even+a+5+year+old+machine.-+the+display+is+just+to+die+for.+one+look+and+you+will+be+in+awe+of+the+pro+retina+technology.+colours+aren'
p304
tp305
g0
(g14
g2
Ntp306
Rp307
(dp308
g18
F0.5
sg19
I189
sg20
g21
((dp309
I00
I189
stp310
Rp311
sg25
I1
sg26
F189.5
sbs(g9
S'u+get+a+whopping+6+gb+ram+'
p312
tp313
g0
(g14
g2
Ntp314
Rp315
(dp316
g18
F0.5
sg19
I193
sg20
g21
((dp317
I00
I193
stp318
Rp319
sg25
I1
sg26
F193.5
sbs(g9
S'2c+mac+os+x+works+like+a+charm+-+i+have+tried+it+for+the+first+time'
p320
tp321
g0
(g14
g2
Ntp322
Rp323
(dp324
g18
F0.5
sg19
I193
sg20
g21
((dp325
I00
I193
stp326
Rp327
sg25
I1
sg26
F193.5
sbs(g8
S'3a+venture+away+from+the+power+outlet+with+confidence.+with+long-lasting+battery+life'
p328
tp329
g0
(g14
g2
Ntp330
Rp331
(dp332
g18
F0.5
sg19
I189
sg20
g21
((dp333
I00
I189
stp334
Rp335
sg25
I1
sg26
F189.5
sbs(g8
S'2c+super-fast+processor'
p336
tp337
g0
(g14
g2
Ntp338
Rp339
(dp340
g18
F0.5
sg19
I189
sg20
g21
((dp341
I00
I189
stp342
Rp343
sg25
I1
sg26
F189.5
sbs(g9
S'27re+still+looking+at+no-compromise+all-day+battery+life.if+not+for+the+continued+battery-life+dominance+and+the+relatively+low+starting+price'
p344
tp345
g0
(g14
g2
Ntp346
Rp347
(dp348
g18
F0.5
sg19
I193
sg20
g21
((dp349
I00
I193
stp350
Rp351
sg25
I1
sg26
F193.5
sbs(g9
S'29+easily+online+-+nor+in+stores.+basically+nothing+was+available+that+could+offer+me+these+specs+and+portability+at+this+price+point'
p352
tp353
g0
(g14
g2
Ntp354
Rp355
(dp356
g18
F0.5
sg19
I193
sg20
g21
((dp357
I00
I193
stp358
Rp359
sg25
I1
sg26
F193.5
sbs(g9
S'28a+model+with+an+11.6-inch+screen+and+otherwise+very+similar+specs+is+available+for+even+less.'
p360
tp361
g0
(g14
g2
Ntp362
Rp363
(dp364
g18
F0.5
sg19
I193
sg20
g21
((dp365
I00
I193
stp366
Rp367
sg25
I1
sg26
F193.5
sbs(g9
S'2c+colors+are+vibrant+and+accurate.i+recommend+u+to+buy+this+phone+if+u+are+looking+for+a+phone+in+range+of+25-30k.another+options+for+u+in+this+range+are+mi5+or+le+max2+but+since+only+white+variant+of+mi5+is+available+in+india+and+the+processor+is+also+underclocked+'
p368
tp369
g0
(g14
g2
Ntp370
Rp371
(dp372
g18
F0.5
sg19
I193
sg20
g21
((dp373
I00
I193
stp374
Rp375
sg25
I1
sg26
F193.5
sbs(g9
S'2c+thanks+to+a+still-slim+design'
p376
tp377
g0
(g14
g2
Ntp378
Rp379
(dp380
g18
F0.5
sg19
I193
sg20
g21
((dp381
I00
I193
stp382
Rp383
sg25
I1
sg26
F193.5
sbs(g9
S'2c+phase+detection+autofocus+and+raw+image+format+support.+you+can+also+shoot+4k+videos+and+slow+motion+at+120+fps.+this+is+pretty+much+the+standard+on+flagship+phones+these+days.the+image+quality+is+better+than+what+you+might+find+on+the+motorola+moto+x+and+moto+x+style+which+is+in+the+same+price+bracket+as+the+oneplus+3.+for+selfie+lovers+the+8-megapixel+sensor+with+1.4-micron+pixels+does+the+job+with+ease+and+it+can+also+shoot+videos+at+1080p+'
p384
tp385
g0
(g14
g2
Ntp386
Rp387
(dp388
g18
F0.5
sg19
I193
sg20
g21
((dp389
I00
I193
stp390
Rp391
sg25
I1
sg26
F193.5
sbs(g8
S'2c+sans+clutter.-+combine+this+laptop+with+an+iphone+or+an+ipad+and+a+whole+new+dynamic+of+information+sharing+amongst+the+devices+is+unlocked.this+laptop+is+not+just+for+a+professional+but+any+regular+joe+or+a+student+who+wants+a+powerful+yet+seamless+multi+tasking+experience'
p392
tp393
g0
(g14
g2
Ntp394
Rp395
(dp396
g18
F0.5
sg19
I189
sg20
g21
((dp397
I00
I189
stp398
Rp399
sg25
I1
sg26
F189.5
sbs(g9
S'2fa+13.3-inch+laptop+is+amazing+product+its+light+and+worth+the+money.i+got+it+for+62k+and+the+seller+was+gadge+tree+which+gave+me+a+bill+that+matches+the+serial+no+on+the+product+itself.the+only+issue+is+the+year+make+of+the+product+i+got+the+early+2015+make+which+is+a+bit+sad+as+we+are+already+in+the+late+2016.so+an+early+2016+make+would+have+been+nice'
p400
tp401
g0
(g14
g2
Ntp402
Rp403
(dp404
g18
F0.5
sg19
I193
sg20
g21
((dp405
I00
I193
stp406
Rp407
sg25
I1
sg26
F193.5
sbs(g9
g249
tp408
g0
(g14
g2
Ntp409
Rp410
(dp411
g18
F0.5
sg19
I193
sg20
g21
((dp412
I00
I193
stp413
Rp414
sg25
I1
sg26
F193.5
sbs(g9
S'2c+and+all+your+skepticism+is+out+of+the+window.-the+build+quality+exudes+of+a+premium+finish+and+feel.-osx+is+as+powerful+as+it+is+secure.+and+combine+that+with+the+hardware+under+the+hood'
p415
tp416
g0
(g14
g2
Ntp417
Rp418
(dp419
g18
F0.5
sg19
I193
sg20
g21
((dp420
I00
I193
stp421
Rp422
sg25
I1
sg26
F193.5
sbs(g8
g415
tp423
g0
(g14
g2
Ntp424
Rp425
(dp426
g18
F0.5
sg19
I189
sg20
g21
((dp427
I00
I189
stp428
Rp429
sg25
I1
sg26
F189.5
sbs(g8
g280
tp430
g0
(g14
g2
Ntp431
Rp432
(dp433
g18
F0.5
sg19
I189
sg20
g21
((dp434
I00
I189
stp435
Rp436
sg25
I1
sg26
F189.5
sbs(g8
S'25.+the+only+back+drop+would+be+a+few+oxygen+bugs+and+its+in-expandable+storage+but+the+os+on+the+whole+is+a+good+one+and+the+op3+has+otg+support+which+covers+the+storage+problem.+hope+this+review+helped+-dd+'
p437
tp438
g0
(g14
g2
Ntp439
Rp440
(dp441
g18
F0.5
sg19
I189
sg20
g21
((dp442
I00
I189
stp443
Rp444
sg25
I1
sg26
F189.5
sbs(g9
S'2c+photos+and+more.+built-in+dvd+drive'
p445
tp446
g0
(g14
g2
Ntp447
Rp448
(dp449
g18
F0.5
sg19
I193
sg20
g21
((dp450
I00
I193
stp451
Rp452
sg25
I1
sg26
F193.5
sbs(g8
S'2c+thanks+to+all+those+negative+comments.+but+i+will+definitely+recommend+that+you+buy+this+if+you+want+a+cell+phone+which+will+not+bug+you+with+low+efficiency+bugs.+oneplus+has+done+a+great+job+with+this+beauty.+battery+life+and+charging+are+very+good.+i+only+get+bugged+by+the+auto-brightness+feature+but+its+nothing+which+can'
p453
tp454
g0
(g14
g2
Ntp455
Rp456
(dp457
g18
F0.5
sg19
I189
sg20
g21
((dp458
I00
I189
stp459
Rp460
sg25
I1
sg26
F189.5
sbs(g9
S'2c+specifically.+read+this+review+once+and+i+bet+you+would+end+up+with+a+deep+urge+to+own+this+beast.for+the+note+-+i+am+a+computer+science+engineering+student'
p461
tp462
g0
(g14
g2
Ntp463
Rp464
(dp465
g18
F0.5
sg19
I193
sg20
g21
((dp466
I00
I193
stp467
Rp468
sg25
I1
sg26
F193.5
sbs(g8
g352
tp469
g0
(g14
g2
Ntp470
Rp471
(dp472
g18
F0.5
sg19
I189
sg20
g21
((dp473
I00
I189
stp474
Rp475
sg25
I1
sg26
F189.5
sbs(g8
S'29+.consider+this+-+this+is+better+built'
p476
tp477
g0
(g14
g2
Ntp478
Rp479
(dp480
g18
F0.5
sg19
I189
sg20
g21
((dp481
I00
I189
stp482
Rp483
sg25
I1
sg26
F189.5
sbs(g8
g461
tp484
g0
(g14
g2
Ntp485
Rp486
(dp487
g18
F0.5
sg19
I189
sg20
g21
((dp488
I00
I189
stp489
Rp490
sg25
I1
sg26
F189.5
sbs(g8
S'2c+though+i+felt+it+could+have+been+increased+a+bit+in+the+design.battery+runs+for+about+2+days+for+my+usage+with+optimum+use+of+wi-fi+and+4g+when+needed'
p491
tp492
g0
(g14
g2
Ntp493
Rp494
(dp495
g18
F0.5
sg19
I189
sg20
g21
((dp496
I00
I189
stp497
Rp498
sg25
I1
sg26
F189.5
sbs(g8
S'26+now+oneplus+3+also+for+2+months+but+overall+in-hand+feel+'
p499
tp500
g0
(g14
g2
Ntp501
Rp502
(dp503
g18
F0.5
sg19
I189
sg20
g21
((dp504
I00
I189
stp505
Rp506
sg25
I1
sg26
F189.5
sbs(g9
S'2c+be+sure+not+to+lose+that+dongle+before+then.+dual-lens+camera+is+only+available+in+7'
p507
tp508
g0
(g14
g2
Ntp509
Rp510
(dp511
g18
F0.5
sg19
I193
sg20
g21
((dp512
I00
I193
stp513
Rp514
sg25
I1
sg26
F193.5
sbs(g8
S'2c+will+always+work+smoothly+and+still+stay+within+your+price+range+for+the+set+of+specs+it+has.+with+6gb+of+ram+and+snapdragon+820+its+going+to+last+well+into+the+future.+oxygenos+is+one+of+the+better+roms+as+far+as+keeping+a+balance+goes+between+stock+android+and+any+added+sophistication.+the+camera+is+also+pretty+cool+and+has+got+features+like+time+lapse+and+slow-motion+video.+the+amoled+screen+is+a+delight+to+look+at'
p515
tp516
g0
(g14
g2
Ntp517
Rp518
(dp519
g18
F0.5
sg19
I189
sg20
g21
((dp520
I00
I189
stp521
Rp522
sg25
I1
sg26
F189.5
sbs(g9
S'camera+performance+of+this+device+is+also+very+good.+it+has+16+mp+primary+which+has+a+pretty+good+advanced+options+to+capture+pics+and+videos.+as+compared+to+xiaomi+mi+5+the+picture+quality+is+good+but+we+can'
p523
tp524
g0
(g14
g2
Ntp525
Rp526
(dp527
g18
F0.5
sg19
I193
sg20
g21
((dp528
I00
I193
stp529
Rp530
sg25
I1
sg26
F193.5
sbs(g8
g400
tp531
g0
(g14
g2
Ntp532
Rp533
(dp534
g18
F0.5
sg19
I189
sg20
g21
((dp535
I00
I189
stp536
Rp537
sg25
I1
sg26
F189.5
sbs(g9
S'25+to+50-55'
p538
tp539
g0
(g14
g2
Ntp540
Rp541
(dp542
g18
F0.5
sg19
I193
sg20
g21
((dp543
I00
I192
sI01
I1
stp544
Rp545
sg25
I2
sg26
F194.0
sbs(g8
g523
tp546
g0
(g14
g2
Ntp547
Rp548
(dp549
g18
F0.5
sg19
I189
sg20
g21
((dp550
I00
I189
stp551
Rp552
sg25
I1
sg26
F189.5
sbs(g9
S'2c+lets+spend+some+extra+and+be+happy+lag+free+for+a+couple+of+years-+experienced+a+little+lag+and+heat+there+too'
p553
tp554
g0
(g14
g2
Ntp555
Rp556
(dp557
g18
F0.5
sg19
I193
sg20
g21
((dp558
I00
I193
stp559
Rp560
sg25
I1
sg26
F193.5
sbs(g8
g553
tp561
g0
(g14
g2
Ntp562
Rp563
(dp564
g18
F0.5
sg19
I189
sg20
g21
((dp565
I00
I189
stp566
Rp567
sg25
I1
sg26
F189.5
sbs(g9
S'28sometime+3-4+gb+each+week'
p568
tp569
g0
(g14
g2
Ntp570
Rp571
(dp572
g18
F0.5
sg19
I193
sg20
g21
((dp573
I00
I193
stp574
Rp575
sg25
I1
sg26
F193.5
sbs(g8
S'sure'
p576
tp577
g0
(g14
g2
Ntp578
Rp579
(dp580
g18
F0.5
sg19
I189
sg20
g21
((dp581
I00
I189
stp582
Rp583
sg25
I1
sg26
F189.5
sbs(g9
S'+do+not+worry+it+will+may+be+fix+in+next+update..+i+got+antutu+score+above+128000+max..+performance+is+main+highlight+of+this+phone+truly+beast..+it+does+not+heat+on+maximum+performance+keep+in+mind+friends..+dash+charging+-what+a+great+idea+of+oneplus+team+hats+off..'
p584
tp585
g0
(g14
g2
Ntp586
Rp587
(dp588
g18
F0.5
sg19
I193
sg20
g21
((dp589
I00
I193
stp590
Rp591
sg25
I1
sg26
F193.5
sbs(g8
S'its+not+even+2+month+now+and+the+phone+is+not+working.first+voice+quality+was+bad+from+the+beginning+but+i+ignored+for+few+days.+later+if+i+turned+on+the+loudspeaker+the+other+side+can'
p592
tp593
g0
(g14
g2
Ntp594
Rp595
(dp596
g18
F0.5
sg19
I189
sg20
g21
((dp597
I00
I189
stp598
Rp599
sg25
I1
sg26
F189.5
sbs(g8
S'23never+settle..u+have+to+compromise+with+this+only+thing..+camera+is+good+but+not+good+in+low+light..+also+its+takes+more+time+to+lock+object+because+it+lacks+laser+autofocus..+but+overall+ok+last+but+not+list+is+after+one+month+of+usage+i+saw+first+time+my+phone+was+lagged+in+multitasking-asphalt+8+was+reopened+in+swtching+between+only+4-5+apps'
p600
tp601
g0
(g14
g2
Ntp602
Rp603
(dp604
g18
F0.5
sg19
I189
sg20
g21
((dp605
I00
I189
stp606
Rp607
sg25
I1
sg26
F189.5
sbs(g9
S'27s+dash+charge+technology+saves+your+time+in+charging..+the+best+part+of+the+phone+is+its+interface+and+working+-+simple'
p608
tp609
g0
(g14
g2
Ntp610
Rp611
(dp612
g18
F0.5
sg19
I193
sg20
g21
((dp613
I00
I193
stp614
Rp615
sg25
I1
sg26
F193.5
sbs(g8
S'21even+if+i+buy+a+license+of+windows+10+and+install+it+via+boot-camp+'
p616
tp617
g0
(g14
g2
Ntp618
Rp619
(dp620
g18
F0.5
sg19
I189
sg20
g21
((dp621
I00
I189
stp622
Rp623
sg25
I1
sg26
F189.5
sbs(g8
S'3a+my+previous+screen+had+a+semi-hd+resolution+so+this+transition+has+brought+to+my+notice+some+never+before+changes+in+display.touchpad'
p624
tp625
g0
(g14
g2
Ntp626
Rp627
(dp628
g18
F0.5
sg19
I189
sg20
g21
((dp629
I00
I189
stp630
Rp631
sg25
I1
sg26
F189.5
sbs(g9
S'27t+come+our+very+well+as+the+shutter+speed+is+not+very+fast.video+capture+quality+is+amazing.+finger+print+sensor+is+lightning+fast.+have+compared+its+response+speed+with+other+mid-range+phones+like+redmi+note+3'
p632
tp633
g0
(g14
g2
Ntp634
Rp635
(dp636
g18
F0.5
sg19
I193
sg20
g21
((dp637
I00
I193
stp638
Rp639
sg25
I1
sg26
F193.5
sbs(g9
g476
tp640
g0
(g14
g2
Ntp641
Rp642
(dp643
g18
F0.5
sg19
I193
sg20
g21
((dp644
I00
I193
stp645
Rp646
sg25
I1
sg26
F193.5
sbs(g8
S'27re+even+water-resistant'
p647
tp648
g0
(g14
g2
Ntp649
Rp650
(dp651
g18
F0.5
sg19
I189
sg20
g21
((dp652
I00
I188
sI01
I1
stp653
Rp654
sg25
I2
sg26
F190.0
sbs(g9
S'27t+panic+as+we+have+a+solution.+just+need+to+download+a+driver+for+the+wifi+using+the+ethernet+cable+and+from+then+your+wi-fi+will+work.+check+out+you+tube+if+you+require+a+real+time+assistance.+the+sound+quality+is+good.+trackpad+has+a+decent+response.+camera+quality+is+better+when+compare+to+the+previous+version+of+dell+which+i+owned+'
p655
tp656
g0
(g14
g2
Ntp657
Rp658
(dp659
g18
F0.5
sg19
I193
sg20
g21
((dp660
I00
I193
stp661
Rp662
sg25
I1
sg26
F193.5
sbs(g8
g27
tp663
g0
(g14
g2
Ntp664
Rp665
(dp666
g18
F0.5
sg19
I189
sg20
g21
((dp667
I00
I189
stp668
Rp669
sg25
I1
sg26
F189.5
sbs(g9
g616
tp670
g0
(g14
g2
Ntp671
Rp672
(dp673
g18
F0.5
sg19
I193
sg20
g21
((dp674
I00
I193
stp675
Rp676
sg25
I1
sg26
F193.5
sbs(g9
g328
tp677
g0
(g14
g2
Ntp678
Rp679
(dp680
g18
F0.5
sg19
I193
sg20
g21
((dp681
I00
I193
stp682
Rp683
sg25
I1
sg26
F193.5
sbs(g9
S'2c+laptop+hardware+is+tampered+in-+transit'
p684
tp685
g0
(g14
g2
Ntp686
Rp687
(dp688
g18
F0.5
sg19
I193
sg20
g21
((dp689
I00
I193
stp690
Rp691
sg25
I1
sg26
F193.5
sbs(g9
S'29.best+-+camera+is+awesome'
p692
tp693
g0
(g14
g2
Ntp694
Rp695
(dp696
g18
F0.5
sg19
I193
sg20
g21
((dp697
I00
I193
stp698
Rp699
sg25
I1
sg26
F193.5
sbs(g9
g75
tp700
g0
(g14
g2
Ntp701
Rp702
(dp703
g18
F0.5
sg19
I193
sg20
g21
((dp704
I00
I193
stp705
Rp706
sg25
I1
sg26
F193.5
sbs(g8
S'2c+one+can+see+the+level+of+black+and+contrast+in+images.the+device+is+pretty+light+for+its+size+and+also+a+looker+as+you+can+see+in+the+attached+pics.+the+bundled+dash-charger+does+what+it+says+and+charges+the+thing+pretty+quickly+so+you+are+not+left+in+a+low+battery+situation+all+the+time.+all+in+all+this+is+money+well+spent+and+deserves+more+than+the+price+it+asks+for'
p707
tp708
g0
(g14
g2
Ntp709
Rp710
(dp711
g18
F0.5
sg19
I189
sg20
g21
((dp712
I00
I189
stp713
Rp714
sg25
I1
sg26
F189.5
sbs(g9
g99
tp715
g0
(g14
g2
Ntp716
Rp717
(dp718
g18
F0.5
sg19
I193
sg20
g21
((dp719
I00
I193
stp720
Rp721
sg25
I2
sg26
F194.0
sbs(g8
g692
tp722
g0
(g14
g2
Ntp723
Rp724
(dp725
g18
F0.5
sg19
I189
sg20
g21
((dp726
I00
I189
stp727
Rp728
sg25
I1
sg26
F189.5
sbs(g8
S'25+in+just+30+minutes.the+camera+on+the+oneplus+3+is+a+huge+improvement+over+the+previous+generation.+the+16-megapixel+sony+imx+298+sensor+primary+camera+delivers+a+good+picture+quality+and+features+optical+image+stabilisation'
p729
tp730
g0
(g14
g2
Ntp731
Rp732
(dp733
g18
F0.5
sg19
I189
sg20
g21
((dp734
I00
I189
stp735
Rp736
sg25
I1
sg26
F189.5
sbs(g9
S'27s+a+one-time+investment'
p737
tp738
g0
(g14
g2
Ntp739
Rp740
(dp741
g18
F0.5
sg19
I193
sg20
g21
((dp742
I00
I192
sI01
I1
stp743
Rp744
sg25
I2
sg26
F194.0
sbs(g8
g632
tp745
g0
(g14
g2
Ntp746
Rp747
(dp748
g18
F0.5
sg19
I189
sg20
g21
((dp749
I00
I189
stp750
Rp751
sg25
I1
sg26
F189.5
sbs(g9
g600
tp752
g0
(g14
g2
Ntp753
Rp754
(dp755
g18
F0.5
sg19
I193
sg20
g21
((dp756
I00
I193
stp757
Rp758
sg25
I1
sg26
F193.5
sbs(g9
g729
tp759
g0
(g14
g2
Ntp760
Rp761
(dp762
g18
F0.5
sg19
I193
sg20
g21
((dp763
I00
I193
stp764
Rp765
sg25
I1
sg26
F193.5
sbs(g9
S'27s+looking+for+changing+your+old+phone+-+op3+can+most+definitely+be+included+in+your+shortlist'
p766
tp767
g0
(g14
g2
Ntp768
Rp769
(dp770
g18
F0.5
sg19
I193
sg20
g21
((dp771
I00
I193
stp772
Rp773
sg25
I1
sg26
F193.5
sbs(g8
S'22-+for+a+full-time+gamer'
p774
tp775
g0
(g14
g2
Ntp776
Rp777
(dp778
g18
F0.5
sg19
I189
sg20
g21
((dp779
I00
I189
stp780
Rp781
sg25
I2
sg26
F190.0
sbs(g9
g437
tp782
g0
(g14
g2
Ntp783
Rp784
(dp785
g18
F0.5
sg19
I193
sg20
g21
((dp786
I00
I193
stp787
Rp788
sg25
I1
sg26
F193.5
sbs(g8
g162
tp789
g0
(g14
g2
Ntp790
Rp791
(dp792
g18
F0.5
sg19
I189
sg20
g21
((dp793
I00
I189
stp794
Rp795
sg25
I1
sg26
F189.5
sbs(g8
g12
tp796
g0
(g14
g2
Ntp797
Rp798
(dp799
g18
F0.5
sg19
I189
sg20
g21
((dp800
I00
I189
stp801
Rp802
sg25
I1
sg26
F189.5
sbs(g9
S'2c+nothing+to+complain+about+as+far+as+quality+of+the+product+is+concerned.+apple+is+definitely+king+of+the+hill+when+it+comes+to+laptops+-+i+love+windows+still+for+certain+tasks+and+this+is+my+first+affair+with+apple+in+a+long+time+'
p803
tp804
g0
(g14
g2
Ntp805
Rp806
(dp807
g18
F0.5
sg19
I193
sg20
g21
((dp808
I00
I193
stp809
Rp810
sg25
I1
sg26
F193.5
sbs(g8
S'2c000.the+device+has+4g+connectivity+with+support+for+both+fdd-band+3+and+tdd-band+40+that+are+widely+used+in+india.+you+also+get+wifi+a'
p811
tp812
g0
(g14
g2
Ntp813
Rp814
(dp815
g18
F0.5
sg19
I189
sg20
g21
((dp816
I00
I189
stp817
Rp818
sg25
I1
sg26
F189.5
sbs(g8
g170
tp819
g0
(g14
g2
Ntp820
Rp821
(dp822
g18
F0.5
sg19
I189
sg20
g21
((dp823
I00
I189
stp824
Rp825
sg25
I1
sg26
F189.5
sbs(g8
g684
tp826
g0
(g14
g2
Ntp827
Rp828
(dp829
g18
F0.5
sg19
I189
sg20
g21
((dp830
I00
I189
stp831
Rp832
sg25
I1
sg26
F189.5
sbs(g9
S'27s+like+you+kept+it+for+10-20+mins+and+then+boom+'
p833
tp834
g0
(g14
g2
Ntp835
Rp836
(dp837
g18
F0.5
sg19
I193
sg20
g21
((dp838
I00
I192
sI01
I1
stp839
Rp840
sg25
I2
sg26
F194.0
sbs(g9
S'2f-'
p841
tp842
g0
(g14
g2
Ntp843
Rp844
(dp845
g18
F0.5
sg19
I193
sg20
g21
((dp846
I00
I193
stp847
Rp848
sg25
I1
sg26
F193.5
sbs(g8
S'2c+but+you+still+can+manage+to+play+games+released+in+2013+-+2014.+battery+backup+is+good'
p849
tp850
g0
(g14
g2
Ntp851
Rp852
(dp853
g18
F0.5
sg19
I189
sg20
g21
((dp854
I00
I189
stp855
Rp856
sg25
I1
sg26
F189.5
sbs(g8
g833
tp857
g0
(g14
g2
Ntp858
Rp859
(dp860
g18
F0.5
sg19
I189
sg20
g21
((dp861
I00
I189
stp862
Rp863
sg25
I2
sg26
F190.0
sbs(g8
S'26+reflection+of+graphite+black+version.first+day+rooted+this+phone+after+updating+the+phone+with+latest+update.battery+life+is+decent+about+4-5+hours+of+screen+on+time+without+any+sim+card+right+now.fingerprint+sensor+is+fastest+on+android+phones+'
p864
tp865
g0
(g14
g2
Ntp866
Rp867
(dp868
g18
F0.5
sg19
I189
sg20
g21
((dp869
I00
I189
stp870
Rp871
sg25
I1
sg26
F189.5
sbs(g8
S'2c+as+it+is+already+a+two-year-old+soc+by+now.+you'
p872
tp873
g0
(g14
g2
Ntp874
Rp875
(dp876
g18
F0.5
sg19
I189
sg20
g21
((dp877
I00
I189
stp878
Rp879
sg25
I1
sg26
F189.5
sbs(g9
S'2c+what+charging+speeds.+the+dash+charge+technology+by+oneplus+makes+it+astonishingly+fast+charging.+20-100'
p880
tp881
g0
(g14
g2
Ntp882
Rp883
(dp884
g18
F0.5
sg19
I193
sg20
g21
((dp885
I00
I193
stp886
Rp887
sg25
I1
sg26
F193.5
sbs(g8
g154
tp888
g0
(g14
g2
Ntp889
Rp890
(dp891
g18
F0.5
sg19
I189
sg20
g21
((dp892
I00
I189
stp893
Rp894
sg25
I1
sg26
F189.5
sbs(g8
S'worst+laptop.+sound+quality+and+touchpad+are+pathetic'
p895
tp896
g0
(g14
g2
Ntp897
Rp898
(dp899
g18
F0.5
sg19
I189
sg20
g21
((dp900
I00
I189
stp901
Rp902
sg25
I1
sg26
F189.5
sbs(g8
g880
tp903
g0
(g14
g2
Ntp904
Rp905
(dp906
g18
F0.5
sg19
I189
sg20
g21
((dp907
I00
I189
stp908
Rp909
sg25
I1
sg26
F189.5
sbs(g9
g91
tp910
g0
(g14
g2
Ntp911
Rp912
(dp913
g18
F0.5
sg19
I193
sg20
g21
((dp914
I00
I193
stp915
Rp916
sg25
I1
sg26
F193.5
sbs(g8
S'29.so+that+might+make+your+captured+video+anti-shake+one+and+also+would+be+better+while+viewing+it.it+has+a+very+fabulous+benchmark+score+of+138000+on+an+average.that+might+easily+give+you+an+idea+of+how+good+does+it+perform+in+day+to+day+life+scenario'
p917
tp918
g0
(g14
g2
Ntp919
Rp920
(dp921
g18
F0.5
sg19
I189
sg20
g21
((dp922
I00
I189
stp923
Rp924
sg25
I1
sg26
F189.5
sbs(g9
S'2c+watch+movies+and+load+software+with+an+optional+built-in+dvd+drive.+easily+store+high+volumes+of+data+on+your+dvds+for+file+archiving'
p925
tp926
g0
(g14
g2
Ntp927
Rp928
(dp929
g18
F0.5
sg19
I193
sg20
g21
((dp930
I00
I193
stp931
Rp932
sg25
I1
sg26
F193.5
sbs(g8
S'27s+advanced+operating+system-+os+x+ei+captain+even+more+powerful+and+easier+to+use.it+comes+with+an+amazing+collection+of+apps.control+macbook+air+with+amazing+gesture.two-finger+swipe+to+navigate.three+fingers+swipe.mission+control-+swipe+up.pinch+to+zoom.superb+browsing+experience+ever.it+only+comes+with+12+hours+of+battery+life+in+'
p933
tp934
g0
(g14
g2
Ntp935
Rp936
(dp937
g18
F0.5
sg19
I189
sg20
g21
((dp938
I00
I189
stp939
Rp940
sg25
I1
sg26
F189.5
sbs(g9
S'words+can'
p941
tp942
g0
(g14
g2
Ntp943
Rp944
(dp945
g18
F0.5
sg19
I193
sg20
g21
((dp946
I00
I193
stp947
Rp948
sg25
I1
sg26
F193.5
sbs(g9
g138
tp949
g0
(g14
g2
Ntp950
Rp951
(dp952
g18
F0.5
sg19
I193
sg20
g21
((dp953
I00
I193
stp954
Rp955
sg25
I1
sg26
F193.5
sbs(g9
g933
tp956
g0
(g14
g2
Ntp957
Rp958
(dp959
g18
F0.5
sg19
I193
sg20
g21
((dp960
I00
I193
stp961
Rp962
sg25
I1
sg26
F193.5
sbs(g8
S'29.and+my+absolute+favorite+thing+-+i+have+only+put+this+machine+to+sleep+'
p963
tp964
g0
(g14
g2
Ntp965
Rp966
(dp967
g18
F0.5
sg19
I189
sg20
g21
((dp968
I00
I189
stp969
Rp970
sg25
I1
sg26
F189.5
sbs(g8
S'2c+carry+the+charge+once+-+lasts+a+week+type+of+phone.+if+your+train+journey+is+40+hours+then+go+by+flight'
p971
tp972
g0
(g14
g2
Ntp973
Rp974
(dp975
g18
F0.5
sg19
I189
sg20
g21
((dp976
I00
I189
stp977
Rp978
sg25
I1
sg26
F189.5
sbs(g8
S'worst+laptop+that+i+had+ever+seen'
p979
tp980
g0
(g14
g2
Ntp981
Rp982
(dp983
g18
F0.5
sg19
I189
sg20
g21
((dp984
I00
I189
stp985
Rp986
sg25
I1
sg26
F189.5
sbs(g9
g811
tp987
g0
(g14
g2
Ntp988
Rp989
(dp990
g18
F0.5
sg19
I193
sg20
g21
((dp991
I00
I193
stp992
Rp993
sg25
I1
sg26
F193.5
sbs(g8
g360
tp994
g0
(g14
g2
Ntp995
Rp996
(dp997
g18
F0.5
sg19
I189
sg20
g21
((dp998
I00
I189
stp999
Rp1000
sg25
I1
sg26
F189.5
sbs(g9
g979
tp1001
g0
(g14
g2
Ntp1002
Rp1003
(dp1004
g18
F0.5
sg19
I193
sg20
g21
((dp1005
I00
I193
stp1006
Rp1007
sg25
I1
sg26
F193.5
sbs(g9
S'2fvideo+port.+the+built-in+flash+storage'
p1008
tp1009
g0
(g14
g2
Ntp1010
Rp1011
(dp1012
g18
F0.5
sg19
I193
sg20
g21
((dp1013
I00
I193
stp1014
Rp1015
sg25
I1
sg26
F193.5
sbs(g9
g849
tp1016
g0
(g14
g2
Ntp1017
Rp1018
(dp1019
g18
F0.5
sg19
I193
sg20
g21
((dp1020
I00
I193
stp1021
Rp1022
sg25
I1
sg26
F193.5
sbs(g9
g194
tp1023
g0
(g14
g2
Ntp1024
Rp1025
(dp1026
g18
F0.5
sg19
I193
sg20
g21
((dp1027
I00
I193
stp1028
Rp1029
sg25
I1
sg26
F193.5
sbs(g9
g872
tp1030
g0
(g14
g2
Ntp1031
Rp1032
(dp1033
g18
F0.5
sg19
I193
sg20
g21
((dp1034
I00
I193
stp1035
Rp1036
sg25
I1
sg26
F193.5
sbs(g8
g218
tp1037
g0
(g14
g2
Ntp1038
Rp1039
(dp1040
g18
F0.5
sg19
I189
sg20
g21
((dp1041
I00
I189
stp1042
Rp1043
sg25
I1
sg26
F189.5
sbs(g9
S'+it+is+just+at+a+15-20+degrees+of+angle.+lazy+i+m.+don'
p1044
tp1045
g0
(g14
g2
Ntp1046
Rp1047
(dp1048
g18
F0.5
sg19
I193
sg20
g21
((dp1049
I00
I193
stp1050
Rp1051
sg25
I1
sg26
F193.5
sbs(g8
g1044
tp1052
g0
(g14
g2
Ntp1053
Rp1054
(dp1055
g18
F0.5
sg19
I189
sg20
g21
((dp1056
I00
I189
stp1057
Rp1058
sg25
I1
sg26
F189.5
sbs(g9
g917
tp1059
g0
(g14
g2
Ntp1060
Rp1061
(dp1062
g18
F0.5
sg19
I193
sg20
g21
((dp1063
I00
I193
stp1064
Rp1065
sg25
I1
sg26
F193.5
sbs(g8
S'2c+but+also+there+at+your+disposal.-havent+encountered+a+single+bug+so+far.+literally+none-streamline'
p1066
tp1067
g0
(g14
g2
Ntp1068
Rp1069
(dp1070
g18
F0.5
sg19
I189
sg20
g21
((dp1071
I00
I189
stp1072
Rp1073
sg25
I1
sg26
F189.5
sbs(g9
S'2c+the+display+is+excellent+and+it+comes+with+a+pre-applied+scratch+guard.+the+finger+print+reader+is+very+quick+and+accurate.+the+camera+is+good+and+performs+well+in+low+light+conditions.+charging+is+quite+fast+as+advertised+with+little+heating+of+the+device.+battery+management+is+good+and+it+lasts+for+at+least+a+day+with+normal+use.+some+might+not+like+the+fact+that+the+internal+memory+is+non-expandable+but+56+gb+of+available+storage+should+be+more+than+enough.+overall'
p1074
tp1075
g0
(g14
g2
Ntp1076
Rp1077
(dp1078
g18
F0.5
sg19
I193
sg20
g21
((dp1079
I00
I193
stp1080
Rp1081
sg25
I1
sg26
F193.5
sbs(g9
g1066
tp1082
g0
(g14
g2
Ntp1083
Rp1084
(dp1085
g18
F0.5
sg19
I193
sg20
g21
((dp1086
I00
I193
stp1087
Rp1088
sg25
I1
sg26
F193.5
sbs(g8
g130
tp1089
g0
(g14
g2
Ntp1090
Rp1091
(dp1092
g18
F0.5
sg19
I189
sg20
g21
((dp1093
I00
I189
stp1094
Rp1095
sg25
I1
sg26
F189.5
sbs(g9
S'this+is+a+phone+you+can'
p1096
tp1097
g0
(g14
g2
Ntp1098
Rp1099
(dp1100
g18
F0.5
sg19
I193
sg20
g21
((dp1101
I00
I193
stp1102
Rp1103
sg25
I1
sg26
F193.5
sbs(g8
g312
tp1104
g0
(g14
g2
Ntp1105
Rp1106
(dp1107
g18
F0.5
sg19
I189
sg20
g21
((dp1108
I00
I189
stp1109
Rp1110
sg25
I1
sg26
F189.5
sbs(g8
g320
tp1111
g0
(g14
g2
Ntp1112
Rp1113
(dp1114
g18
F0.5
sg19
I189
sg20
g21
((dp1115
I00
I189
stp1116
Rp1117
sg25
I1
sg26
F189.5
sbs(g9
g971
tp1118
g0
(g14
g2
Ntp1119
Rp1120
(dp1121
g18
F0.5
sg19
I193
sg20
g21
((dp1122
I00
I193
stp1123
Rp1124
sg25
I1
sg26
F193.5
sbs(g9
g336
tp1125
g0
(g14
g2
Ntp1126
Rp1127
(dp1128
g18
F0.5
sg19
I193
sg20
g21
((dp1129
I00
I193
stp1130
Rp1131
sg25
I1
sg26
F193.5
sbs(g9
S'2c+surely+you+can+get+a+better+configuration+at+this+range+on+other+windows-based+system'
p1132
tp1133
g0
(g14
g2
Ntp1134
Rp1135
(dp1136
g18
F0.5
sg19
I193
sg20
g21
((dp1137
I00
I193
stp1138
Rp1139
sg25
I1
sg26
F193.5
sbs(g9
g491
tp1140
g0
(g14
g2
Ntp1141
Rp1142
(dp1143
g18
F0.5
sg19
I193
sg20
g21
((dp1144
I00
I193
stp1145
Rp1146
sg25
I1
sg26
F193.5
sbs(g9
S'2c+nothing+else+exists+that+does+what+it+does+currently+-+allow+me+to+elaborate'
p1147
tp1148
g0
(g14
g2
Ntp1149
Rp1150
(dp1151
g18
F0.5
sg19
I193
sg20
g21
((dp1152
I00
I193
stp1153
Rp1154
sg25
I1
sg26
F193.5
sbs(g8
g59
tp1155
g0
(g14
g2
Ntp1156
Rp1157
(dp1158
g18
F0.5
sg19
I189
sg20
g21
((dp1159
I00
I189
stp1160
Rp1161
sg25
I1
sg26
F189.5
sbs(g8
g1147
tp1162
g0
(g14
g2
Ntp1163
Rp1164
(dp1165
g18
F0.5
sg19
I189
sg20
g21
((dp1166
I00
I189
stp1167
Rp1168
sg25
I1
sg26
F189.5
sbs(g9
S'+which+has+a+great+higher-res+display+and+plenty+of+high-end+configuration+options.but+that+doesn'
p1169
tp1170
g0
(g14
g2
Ntp1171
Rp1172
(dp1173
g18
F0.5
sg19
I193
sg20
g21
((dp1174
I00
I193
stp1175
Rp1176
sg25
I1
sg26
F193.5
sbs(g9
S'27.+i+threw+off+my+4-5+yo+sony+xperia.+kidding+xd+i+didn'
p1177
tp1178
g0
(g14
g2
Ntp1179
Rp1180
(dp1181
g18
F0.5
sg19
I193
sg20
g21
((dp1182
I00
I193
stp1183
Rp1184
sg25
I1
sg26
F193.5
sbs(g8
g264
tp1185
g0
(g14
g2
Ntp1186
Rp1187
(dp1188
g18
F0.5
sg19
I189
sg20
g21
((dp1189
I00
I189
stp1190
Rp1191
sg25
I1
sg26
F189.5
sbs(g8
g1177
tp1192
g0
(g14
g2
Ntp1193
Rp1194
(dp1195
g18
F0.5
sg19
I189
sg20
g21
((dp1196
I00
I189
stp1197
Rp1198
sg25
I1
sg26
F189.5
sbs(g9
S'.but+the+adp+and+the+way+to+activate+adp+is+totally+ridiculous'
p1199
tp1200
g0
(g14
g2
Ntp1201
Rp1202
(dp1203
g18
F0.5
sg19
I193
sg20
g21
((dp1204
I00
I193
stp1205
Rp1206
sg25
I1
sg26
F193.5
sbs(g8
S'2c+nobody+is+perfect+in+this+world+even+those+expensive+useless+i-phones'
p1207
tp1208
g0
(g14
g2
Ntp1209
Rp1210
(dp1211
g18
F0.5
sg19
I189
sg20
g21
((dp1212
I00
I189
stp1213
Rp1214
sg25
I1
sg26
F189.5
sbs(g9
g576
tp1215
g0
(g14
g2
Ntp1216
Rp1217
(dp1218
g18
F0.5
sg19
I193
sg20
g21
((dp1219
I00
I193
stp1220
Rp1221
sg25
I1
sg26
F193.5
sbs(g8
g1199
tp1222
g0
(g14
g2
Ntp1223
Rp1224
(dp1225
g18
F0.5
sg19
I189
sg20
g21
((dp1226
I00
I189
stp1227
Rp1228
sg25
I1
sg26
F189.5
sbs(g8
g146
tp1229
g0
(g14
g2
Ntp1230
Rp1231
(dp1232
g18
F0.5
sg19
I189
sg20
g21
((dp1233
I00
I189
stp1234
Rp1235
sg25
I1
sg26
F189.5
sbs(g8
g1096
tp1236
g0
(g14
g2
Ntp1237
Rp1238
(dp1239
g18
F0.5
sg19
I189
sg20
g21
((dp1240
I00
I189
stp1241
Rp1242
sg25
I1
sg26
F189.5
sbs(g8
g608
tp1243
g0
(g14
g2
Ntp1244
Rp1245
(dp1246
g18
F0.5
sg19
I189
sg20
g21
((dp1247
I00
I189
stp1248
Rp1249
sg25
I1
sg26
F189.5
sbs(g9
S'this+cell+phone+display+not+working+please+change+the+same+cell+phone+i+can'
p1250
tp1251
g0
(g14
g2
Ntp1252
Rp1253
(dp1254
g18
F0.5
sg19
I193
sg20
g21
((dp1255
I00
I193
stp1256
Rp1257
sg25
I1
sg26
F193.5
sbs(g8
g376
tp1258
g0
(g14
g2
Ntp1259
Rp1260
(dp1261
g18
F0.5
sg19
I189
sg20
g21
((dp1262
I00
I189
stp1263
Rp1264
sg25
I1
sg26
F189.5
sbs(g9
g35
tp1265
g0
(g14
g2
Ntp1266
Rp1267
(dp1268
g18
F0.5
sg19
I193
sg20
g21
((dp1269
I00
I193
stp1270
Rp1271
sg25
I1
sg26
F193.5
sbs(g8
g445
tp1272
g0
(g14
g2
Ntp1273
Rp1274
(dp1275
g18
F0.5
sg19
I189
sg20
g21
((dp1276
I00
I189
stp1277
Rp1278
sg25
I1
sg26
F189.5
sbs(g9
g392
tp1279
g0
(g14
g2
Ntp1280
Rp1281
(dp1282
g18
F0.5
sg19
I193
sg20
g21
((dp1283
I00
I193
stp1284
Rp1285
sg25
I1
sg26
F193.5
sbs(g9
S'27+inch+display+which+can+give+full+hd+display.+the+16+mp+back+cam+gives+crystal+clear+images+and+it+also+has+a+manual+mode+for+photographers+to+get+that+just+right+candid+pic.+the+front+8+mp+is+a+classy+one+for+selfies+and+can+give+u+pics+at+a+smile.+the+3000mhz+battery+is+made+to+last+long+but+the+load+on+it+due+to+the+processor+and+ram+make+it+last+upto+14-15+hours+but+its+dash+charge+omg+just+give+it+15+mins+ur+battery+is+up+to+35'
p1286
tp1287
g0
(g14
g2
Ntp1288
Rp1289
(dp1290
g18
F0.5
sg19
I193
sg20
g21
((dp1291
I00
I193
stp1292
Rp1293
sg25
I1
sg26
F193.5
sbs(g8
g507
tp1294
g0
(g14
g2
Ntp1295
Rp1296
(dp1297
g18
F0.5
sg19
I189
sg20
g21
((dp1298
I00
I189
stp1299
Rp1300
sg25
I1
sg26
F189.5
sbs(g8
g226
tp1301
g0
(g14
g2
Ntp1302
Rp1303
(dp1304
g18
F0.5
sg19
I189
sg20
g21
((dp1305
I00
I189
stp1306
Rp1307
sg25
I1
sg26
F189.5
sbs(g8
g186
tp1308
g0
(g14
g2
Ntp1309
Rp1310
(dp1311
g18
F0.5
sg19
I189
sg20
g21
((dp1312
I00
I189
stp1313
Rp1314
sg25
I1
sg26
F189.5
sbs(g8
g296
tp1315
g0
(g14
g2
Ntp1316
Rp1317
(dp1318
g18
F0.5
sg19
I189
sg20
g21
((dp1319
I00
I189
stp1320
Rp1321
sg25
I1
sg26
F189.5
sbs(g9
g707
tp1322
g0
(g14
g2
Ntp1323
Rp1324
(dp1325
g18
F0.5
sg19
I193
sg20
g21
((dp1326
I00
I193
stp1327
Rp1328
sg25
I1
sg26
F193.5
sbs(g8
S'2c+now+the+device+is+not+switching+on+in+a+single+try.+we+have+to+press+the+power+button+a+couple+of+times+-+deep+press+one+time'
p1329
tp1330
g0
(g14
g2
Ntp1331
Rp1332
(dp1333
g18
F0.5
sg19
I189
sg20
g21
((dp1334
I00
I189
stp1335
Rp1336
sg25
I1
sg26
F189.5
sbs(g9
S'.packing+was+great+as+usual'
p1337
tp1338
g0
(g14
g2
Ntp1339
Rp1340
(dp1341
g18
F0.5
sg19
I193
sg20
g21
((dp1342
I00
I193
stp1343
Rp1344
sg25
I1
sg26
F193.5
sbs(g8
g568
tp1345
g0
(g14
g2
Ntp1346
Rp1347
(dp1348
g18
F0.5
sg19
I189
sg20
g21
((dp1349
I00
I189
stp1350
Rp1351
sg25
I1
sg26
F189.5
sbs(g8
g1337
tp1352
g0
(g14
g2
Ntp1353
Rp1354
(dp1355
g18
F0.5
sg19
I189
sg20
g21
((dp1356
I00
I189
stp1357
Rp1358
sg25
I1
sg26
F189.5
sbs(g9
g1329
tp1359
g0
(g14
g2
Ntp1360
Rp1361
(dp1362
g18
F0.5
sg19
I193
sg20
g21
((dp1363
I00
I193
stp1364
Rp1365
sg25
I1
sg26
F193.5
sbs(g8
g43
tp1366
g0
(g14
g2
Ntp1367
Rp1368
(dp1369
g18
F0.5
sg19
I189
sg20
g21
((dp1370
I00
I189
stp1371
Rp1372
sg25
I1
sg26
F189.5
sbs(g9
g592
tp1373
g0
(g14
g2
Ntp1374
Rp1375
(dp1376
g18
F0.5
sg19
I193
sg20
g21
((dp1377
I00
I193
stp1378
Rp1379
sg25
I1
sg26
F193.5
sbs(g9
S'2c+as+well+as+the+non-apple+competition.+even+if+more+challenging+tasks+or+heavy+online+streaming+cut+that+number+by+40+percent+or+so'
p1380
tp1381
g0
(g14
g2
Ntp1382
Rp1383
(dp1384
g18
F0.5
sg19
I193
sg20
g21
((dp1385
I00
I193
stp1386
Rp1387
sg25
I1
sg26
F193.5
sbs(g8
g202
tp1388
g0
(g14
g2
Ntp1389
Rp1390
(dp1391
g18
F0.5
sg19
I189
sg20
g21
((dp1392
I00
I189
stp1393
Rp1394
sg25
I1
sg26
F189.5
sbs(g9
g453
tp1395
g0
(g14
g2
Ntp1396
Rp1397
(dp1398
g18
F0.5
sg19
I193
sg20
g21
((dp1399
I00
I193
stp1400
Rp1401
sg25
I1
sg26
F193.5
sbs(g9
g304
tp1402
g0
(g14
g2
Ntp1403
Rp1404
(dp1405
g18
F0.5
sg19
I193
sg20
g21
((dp1406
I00
I193
stp1407
Rp1408
sg25
I1
sg26
F193.5
sbs(g9
g647
tp1409
g0
(g14
g2
Ntp1410
Rp1411
(dp1412
g18
F0.5
sg19
I193
sg20
g21
((dp1413
I00
I193
stp1414
Rp1415
sg25
I2
sg26
F194.0
sbs(g9
g774
tp1416
g0
(g14
g2
Ntp1417
Rp1418
(dp1419
g18
F0.5
sg19
I193
sg20
g21
((dp1420
I00
I192
sI01
I1
stp1421
Rp1422
sg25
I2
sg26
F194.0
sbs(g8
g368
tp1423
g0
(g14
g2
Ntp1424
Rp1425
(dp1426
g18
F0.5
sg19
I189
sg20
g21
((dp1427
I00
I189
stp1428
Rp1429
sg25
I1
sg26
F189.5
sbs(g8
g655
tp1430
g0
(g14
g2
Ntp1431
Rp1432
(dp1433
g18
F0.5
sg19
I189
sg20
g21
((dp1434
I00
I189
stp1435
Rp1436
sg25
I1
sg26
F189.5
sbs(g8
S'27t+notice+the+difference+in+day+to+day+use+unless+you+are+a+gamer+and+watch+movies+on+your+phone+a+lot.one+bug+i+face+is+the+switching+between+wi-fi+and+cellular+data.+if+both+are+turned+off+and+you+try+to+just+turn+on+cellular+data'
p1437
tp1438
g0
(g14
g2
Ntp1439
Rp1440
(dp1441
g18
F0.5
sg19
I189
sg20
g21
((dp1442
I00
I189
stp1443
Rp1444
sg25
I1
sg26
F189.5
sbs(g8
g803
tp1445
g0
(g14
g2
Ntp1446
Rp1447
(dp1448
g18
F0.5
sg19
I189
sg20
g21
((dp1449
I00
I189
stp1450
Rp1451
sg25
I1
sg26
F189.5
sbs(g9
g515
tp1452
g0
(g14
g2
Ntp1453
Rp1454
(dp1455
g18
F0.5
sg19
I193
sg20
g21
((dp1456
I00
I193
stp1457
Rp1458
sg25
I1
sg26
F193.5
sbs(g9
g895
tp1459
g0
(g14
g2
Ntp1460
Rp1461
(dp1462
g18
F0.5
sg19
I193
sg20
g21
((dp1463
I00
I193
stp1464
Rp1465
sg25
I1
sg26
F193.5
sbs(g8
S'2c+the+phone+lasts+easily+a+day+and+a+half.+the+phone+comes+with+fast+charging+too+on+the+usb+type-c+and+can+charge+from+0-60'
p1466
tp1467
g0
(g14
g2
Ntp1468
Rp1469
(dp1470
g18
F0.5
sg19
I189
sg20
g21
((dp1471
I00
I189
stp1472
Rp1473
sg25
I1
sg26
F189.5
sbs(g8
g841
tp1474
g0
(g14
g2
Ntp1475
Rp1476
(dp1477
g18
F0.5
sg19
I189
sg20
g21
((dp1478
I00
I189
stp1479
Rp1480
sg25
I1
sg26
F189.5
sbs(g8
g384
tp1481
g0
(g14
g2
Ntp1482
Rp1483
(dp1484
g18
F0.5
sg19
I189
sg20
g21
((dp1485
I00
I189
stp1486
Rp1487
sg25
I1
sg26
F189.5
sbs(g8
g107
tp1488
g0
(g14
g2
Ntp1489
Rp1490
(dp1491
g18
F0.5
sg19
I189
sg20
g21
((dp1492
I00
I189
stp1493
Rp1494
sg25
I1
sg26
F189.5
sbs(g8
g1250
tp1495
g0
(g14
g2
Ntp1496
Rp1497
(dp1498
g18
F0.5
sg19
I189
sg20
g21
((dp1499
I00
I189
stp1500
Rp1501
sg25
I1
sg26
F189.5
sbs(g8
g1132
tp1502
g0
(g14
g2
Ntp1503
Rp1504
(dp1505
g18
F0.5
sg19
I189
sg20
g21
((dp1506
I00
I189
stp1507
Rp1508
sg25
I1
sg26
F189.5
sbs(g9
S'2c+somebody+else+will+find+it+useful.the+default+screen-guard+is+a+little+smaller+in+the+perimeter.+but+has+not+developed+any+bubbles+yet.battery+life+not+that+satisfactory.+sometimes+need+to+charge+it+twice+a+day.+this+without+heavy+usage.+half+an+hour+8'
p1509
tp1510
g0
(g14
g2
Ntp1511
Rp1512
(dp1513
g18
F0.5
sg19
I193
sg20
g21
((dp1514
I00
I193
stp1515
Rp1516
sg25
I1
sg26
F193.5
sbs(g9
g1207
tp1517
g0
(g14
g2
Ntp1518
Rp1519
(dp1520
g18
F0.5
sg19
I193
sg20
g21
((dp1521
I00
I193
stp1522
Rp1523
sg25
I1
sg26
F193.5
sbs(g8
g1380
tp1524
g0
(g14
g2
Ntp1525
Rp1526
(dp1527
g18
F0.5
sg19
I189
sg20
g21
((dp1528
I00
I189
stp1529
Rp1530
sg25
I1
sg26
F189.5
sbs(g8
g1509
tp1531
g0
(g14
g2
Ntp1532
Rp1533
(dp1534
g18
F0.5
sg19
I189
sg20
g21
((dp1535
I00
I189
stp1536
Rp1537
sg25
I1
sg26
F189.5
sbs(g9
g624
tp1538
g0
(g14
g2
Ntp1539
Rp1540
(dp1541
g18
F0.5
sg19
I193
sg20
g21
((dp1542
I00
I193
stp1543
Rp1544
sg25
I1
sg26
F193.5
sbs(g8
S'2c+s-pen+and+touch+viz+exp.+i+feel+the+front+facing+cam+is+better+on+this+than+the+one+on+note+5.+rear+cam+is+debatable.+battery+is+superb.+totally+happy.+dash+charging+is+awesome.+solid+bulid.+looks+great+but+they+should+give+more+colours+like+black+also.+it+would+crazy+in+black+full+metal+finish'
p1545
tp1546
g0
(g14
g2
Ntp1547
Rp1548
(dp1549
g18
F0.5
sg19
I189
sg20
g21
((dp1550
I00
I189
stp1551
Rp1552
sg25
I1
sg26
F189.5
sbs(g8
g941
tp1553
g0
(g14
g2
Ntp1554
Rp1555
(dp1556
g18
F0.5
sg19
I189
sg20
g21
((dp1557
I00
I189
stp1558
Rp1559
sg25
I1
sg26
F189.5
sbs(g9
g1545
tp1560
g0
(g14
g2
Ntp1561
Rp1562
(dp1563
g18
F0.5
sg19
I193
sg20
g21
((dp1564
I00
I193
stp1565
Rp1566
sg25
I1
sg26
F193.5
sbs(g8
g925
tp1567
g0
(g14
g2
Ntp1568
Rp1569
(dp1570
g18
F0.5
sg19
I189
sg20
g21
((dp1571
I00
I189
stp1572
Rp1573
sg25
I1
sg26
F189.5
sbs(g8
g288
tp1574
g0
(g14
g2
Ntp1575
Rp1576
(dp1577
g18
F0.5
sg19
I189
sg20
g21
((dp1578
I00
I189
stp1579
Rp1580
sg25
I1
sg26
F189.5
sbs(g8
g766
tp1581
g0
(g14
g2
Ntp1582
Rp1583
(dp1584
g18
F0.5
sg19
I189
sg20
g21
((dp1585
I00
I189
stp1586
Rp1587
sg25
I1
sg26
F189.5
sbs(g9
g963
tp1588
g0
(g14
g2
Ntp1589
Rp1590
(dp1591
g18
F0.5
sg19
I193
sg20
g21
((dp1592
I00
I193
stp1593
Rp1594
sg25
I1
sg26
F193.5
sbs(g8
g584
tp1595
g0
(g14
g2
Ntp1596
Rp1597
(dp1598
g18
F0.5
sg19
I189
sg20
g21
((dp1599
I00
I189
stp1600
Rp1601
sg25
I1
sg26
F189.5
sbs(g9
g1437
tp1602
g0
(g14
g2
Ntp1603
Rp1604
(dp1605
g18
F0.5
sg19
I193
sg20
g21
((dp1606
I00
I193
stp1607
Rp1608
sg25
I1
sg26
F193.5
sbs(g9
g499
tp1609
g0
(g14
g2
Ntp1610
Rp1611
(dp1612
g18
F0.5
sg19
I193
sg20
g21
((dp1613
I00
I193
stp1614
Rp1615
sg25
I1
sg26
F193.5
sbs(g8
g344
tp1616
g0
(g14
g2
Ntp1617
Rp1618
(dp1619
g18
F0.5
sg19
I189
sg20
g21
((dp1620
I00
I189
stp1621
Rp1622
sg25
I1
sg26
F189.5
sbs(g8
g1008
tp1623
g0
(g14
g2
Ntp1624
Rp1625
(dp1626
g18
F0.5
sg19
I189
sg20
g21
((dp1627
I00
I189
stp1628
Rp1629
sg25
I1
sg26
F189.5
sbs(g8
g51
tp1630
g0
(g14
g2
Ntp1631
Rp1632
(dp1633
g18
F0.5
sg19
I189
sg20
g21
((dp1634
I00
I188
sI01
I1
stp1635
Rp1636
sg25
I2
sg26
F190.0
sbs(g8
g538
tp1637
g0
(g14
g2
Ntp1638
Rp1639
(dp1640
g18
F0.5
sg19
I189
sg20
g21
((dp1641
I00
I189
stp1642
Rp1643
sg25
I2
sg26
F190.0
sbs(g9
g864
tp1644
g0
(g14
g2
Ntp1645
Rp1646
(dp1647
g18
F0.5
sg19
I193
sg20
g21
((dp1648
I00
I193
stp1649
Rp1650
sg25
I1
sg26
F193.5
sbs(g8
g1169
tp1651
g0
(g14
g2
Ntp1652
Rp1653
(dp1654
g18
F0.5
sg19
I189
sg20
g21
((dp1655
I00
I189
stp1656
Rp1657
sg25
I1
sg26
F189.5
sbs(g8
g737
tp1658
g0
(g14
g2
Ntp1659
Rp1660
(dp1661
g18
F0.5
sg19
I189
sg20
g21
((dp1662
I00
I189
stp1663
Rp1664
sg25
I2
sg26
F190.0
sbs(g8
g272
tp1665
g0
(g14
g2
Ntp1666
Rp1667
(dp1668
g18
F0.5
sg19
I189
sg20
g21
((dp1669
I00
I189
stp1670
Rp1671
sg25
I1
sg26
F189.5
sbs(g8
g210
tp1672
g0
(g14
g2
Ntp1673
Rp1674
(dp1675
g18
F0.5
sg19
I189
sg20
g21
((dp1676
I00
I189
stp1677
Rp1678
sg25
I1
sg26
F189.5
sbs(g8
g67
tp1679
g0
(g14
g2
Ntp1680
Rp1681
(dp1682
g18
F0.5
sg19
I189
sg20
g21
((dp1683
I00
I189
stp1684
Rp1685
sg25
I1
sg26
F189.5
sbs(g8
g1074
tp1686
g0
(g14
g2
Ntp1687
Rp1688
(dp1689
g18
F0.5
sg19
I189
sg20
g21
((dp1690
I00
I189
stp1691
Rp1692
sg25
I1
sg26
F189.5
sbs(g9
g1466
tp1693
g0
(g14
g2
Ntp1694
Rp1695
(dp1696
g18
F0.5
sg19
I193
sg20
g21
((dp1697
I00
I193
stp1698
Rp1699
sg25
I1
sg26
F193.5
sbs(g8
g178
tp1700
g0
(g14
g2
Ntp1701
Rp1702
(dp1703
g18
F0.5
sg19
I189
sg20
g21
((dp1704
I00
I189
stp1705
Rp1706
sg25
I1
sg26
F189.5
sbs(g8
g1286
tp1707
g0
(g14
g2
Ntp1708
Rp1709
(dp1710
g18
F0.5
sg19
I189
sg20
g21
((dp1711
I00
I189
stp1712
Rp1713
sg25
I1
sg26
F189.5
sbssS'_label_probdist'
p1714
g0
(g14
g2
Ntp1715
Rp1716
(dp1717
g18
F0.5
sg19
I382
sg20
g21
((dp1718
g8
I189
sg9
I193
stp1719
Rp1720
sg25
I2
sg26
F383.0
sbsb.